(dp0
S'344'
p1
S'12192.48060'
p2
sS'345'
p3
S'12250.19890'
p4
sS'346'
p5
S'12308.03460'
p6
sS'347'
p7
S'12366.10800'
p8
sS'340'
p9
S'11963.13190'
p10
sS'341'
p11
S'12020.14740'
p12
sS'342'
p13
S'12077.39610'
p14
sS'343'
p15
S'12134.87970'
p16
sS'2918'
p17
S'41035314.60000'
p18
sS'348'
p19
S'12424.42090'
p20
sS'349'
p21
S'12482.85320'
p22
sS'3002'
p23
S'50030712.30000'
p24
sS'2919'
p25
S'41133067.70000'
p26
sS'1653'
p27
S'1303921.18000'
p28
sS'2318'
p29
S'8973727.96000'
p30
sS'2319'
p31
S'8997963.31000'
p32
sS'2316'
p33
S'8925435.06000'
p34
sS'2317'
p35
S'8949551.91000'
p36
sS'2314'
p37
S'8877382.93000'
p38
sS'2315'
p39
S'8901379.47000'
p40
sS'2312'
p41
S'8829566.73000'
p42
sS'2313'
p43
S'8853445.38000'
p44
sS'2310'
p45
S'8781990.09000'
p46
sS'2311'
p47
S'8805749.03000'
p48
sS'298'
p49
S'9700.70686'
p50
sS'299'
p51
S'9751.63638'
p52
sS'296'
p53
S'9599.15882'
p54
sS'297'
p55
S'9649.88098'
p56
sS'294'
p57
S'9498.11999'
p58
sS'295'
p59
S'9548.54046'
p60
sS'292'
p61
S'9397.68120'
p62
sS'293'
p63
S'9447.80252'
p64
sS'290'
p65
S'9297.74531'
p66
sS'291'
p67
S'9347.66210'
p68
sS'2147'
p69
S'5609376.15000'
p70
sS'270'
p71
S'8325.83554'
p72
sS'271'
p73
S'8373.21399'
p74
sS'272'
p75
S'8420.77487'
p76
sS'273'
p77
S'8468.43527'
p78
sS'274'
p79
S'8516.27972'
p80
sS'275'
p81
S'8564.13933'
p82
sS'276'
p83
S'8612.18367'
p84
sS'277'
p85
S'8660.32805'
p86
sS'278'
p87
S'8708.65879'
p88
sS'279'
p89
S'8757.00333'
p90
sS'3465'
p91
S'140934674.00000'
p92
sS'3211'
p93
S'80774753.70000'
p94
sS'1780'
p95
S'1925892.52000'
p96
sS'2146'
p97
S'5593696.37000'
p98
sS'2268'
p99
S'7835792.51000'
p100
sS'2269'
p101
S'7857185.25000'
p102
sS'2262'
p103
S'7708564.83000'
p104
sS'2263'
p105
S'7729637.16000'
p106
sS'2260'
p107
S'7666579.56000'
p108
sS'2261'
p109
S'7687545.65000'
p110
sS'2266'
p111
S'7793169.73000'
p112
sS'2267'
p113
S'7814455.39000'
p114
sS'2264'
p115
S'7750760.68000'
p116
sS'2265'
p117
S'7771939.54000'
p118
sS'2442'
p119
S'12483168.60000'
p120
sS'2443'
p121
S'12515999.90000'
p122
sS'2440'
p123
S'12417742.30000'
p124
sS'2441'
p125
S'12450416.20000'
p126
sS'1781'
p127
S'1931735.51000'
p128
sS'2447'
p129
S'12648118.80000'
p130
sS'2444'
p131
S'12548909.90000'
p132
sS'2445'
p133
S'12581899.00000'
p134
sS'2448'
p135
S'12681347.50000'
p136
sS'2449'
p137
S'12714657.90000'
p138
sS'2189'
p139
S'6305711.62000'
p140
sS'108'
p141
S'2107.82717'
p142
sS'109'
p143
S'2136.91776'
p144
sS'102'
p145
S'1936.11214'
p146
sS'103'
p147
S'1964.39145'
p148
sS'100'
p149
S'1879.96657'
p150
sS'101'
p151
S'1907.97029'
p152
sS'106'
p153
S'2050.04758'
p154
sS'107'
p155
S'2078.87024'
p156
sS'104'
p157
S'1992.80755'
p158
sS'105'
p159
S'2021.35981'
p160
sS'2046'
p161
S'4214992.07000'
p162
sS'2047'
p163
S'4227065.94000'
p164
sS'2044'
p165
S'4190939.05000'
p166
sS'2045'
p167
S'4202949.79000'
p168
sS'2042'
p169
S'4167013.75000'
p170
sS'2043'
p171
S'4178961.54000'
p172
sS'2040'
p173
S'4143215.82000'
p174
sS'2041'
p175
S'4155099.10000'
p176
sS'3198'
p177
S'78448169.40000'
p178
sS'2048'
p179
S'4239171.43000'
p180
sS'2049'
p181
S'4251308.60000'
p182
sS'3150'
p183
S'70378074.30000'
p184
sS'3155'
p185
S'71181810.80000'
p186
sS'3154'
p187
S'71020393.60000'
p188
sS'3238'
p189
S'85809524.20000'
p190
sS'1372'
p191
S'529986.05600'
p192
sS'2737'
p193
S'26461661.20000'
p194
sS'2038'
p195
S'4119543.15000'
p196
sS'2836'
p197
S'33706033.90000'
p198
sS'3159'
p199
S'71830825.60000'
p200
sS'1001'
p201
S'149691.54200'
p202
sS'3158'
p203
S'71668069.30000'
p204
sS'3446'
p205
S'135311743.00000'
p206
sS'1210'
p207
S'308253.85300'
p208
sS'3239'
p209
S'86001386.00000'
p210
sS'1375'
p211
S'535248.70400'
p212
sS'2688'
p213
S'23431703.10000'
p214
sS'2689'
p215
S'23490218.10000'
p216
sS'2684'
p217
S'23198976.50000'
p218
sS'2685'
p219
S'23256958.30000'
p220
sS'2686'
p221
S'23315073.30000'
p222
sS'2687'
p223
S'23373321.50000'
p224
sS'2680'
p225
S'22968371.30000'
p226
sS'1655'
p227
S'1312061.27000'
p228
sS'2682'
p229
S'23083408.60000'
p230
sS'2683'
p231
S'23141127.50000'
p232
sS'3391'
p233
S'120168790.00000'
p234
sS'3390'
p235
S'119908386.00000'
p236
sS'3441'
p237
S'133866446.00000'
p238
sS'1374'
p239
S'533489.45900'
p240
sS'99'
p241
S'1852.10164'
p242
sS'98'
p243
S'1824.37619'
p244
sS'3019'
p245
S'52057317.80000'
p246
sS'91'
p247
S'1634.26355'
p248
sS'90'
p249
S'1607.68001'
p250
sS'93'
p251
S'1687.86600'
p252
sS'92'
p253
S'1660.99247'
p254
sS'95'
p255
S'1742.04378'
p256
sS'94'
p257
S'1714.88335'
p258
sS'97'
p259
S'1796.79093'
p260
sS'96'
p261
S'1769.34655'
p262
sS'1623'
p263
S'1187334.28000'
p264
sS'1622'
p265
S'1183620.95000'
p266
sS'1621'
p267
S'1179919.00000'
p268
sS'1620'
p269
S'1176227.17000'
p270
sS'1627'
p271
S'1202296.77000'
p272
sS'1626'
p273
S'1198538.99000'
p274
sS'1625'
p275
S'1194793.90000'
p276
sS'1624'
p277
S'1191059.00000'
p278
sS'1999'
p279
S'3682189.63000'
p280
sS'1998'
p281
S'3671562.35000'
p282
sS'1629'
p283
S'1209843.03000'
p284
sS'1377'
p285
S'538785.20400'
p286
sS'3209'
p287
S'80412762.30000'
p288
sS'3208'
p289
S'80232322.80000'
p290
sS'3013'
p291
S'51333626.20000'
p292
sS'2860'
p293
S'35716180.60000'
p294
sS'2861'
p295
S'35802270.50000'
p296
sS'2862'
p297
S'35888549.40000'
p298
sS'2863'
p299
S'35975020.50000'
p300
sS'559'
p301
S'29825.77620'
p302
sS'558'
p303
S'29711.42270'
p304
sS'2866'
p305
S'36235574.20000'
p306
sS'2867'
p307
S'36322810.10000'
p308
sS'555'
p309
S'29370.39260'
p310
sS'554'
p311
S'29257.55190'
p312
sS'557'
p313
S'29597.32640'
p314
sS'556'
p315
S'29483.73180'
p316
sS'551'
p317
S'28921.27590'
p318
sS'550'
p319
S'28809.92860'
p320
sS'553'
p321
S'29145.20770'
p322
sS'552'
p323
S'29033.11580'
p324
sS'2744'
p325
S'26922677.40000'
p326
sS'1439'
p327
S'659940.88500'
p328
sS'1199'
p329
S'296943.41100'
p330
sS'1198'
p331
S'295935.33000'
p332
sS'3348'
p333
S'109425442.00000'
p334
sS'3349'
p335
S'109664984.00000'
p336
sS'1191'
p337
S'288965.79600'
p338
sS'1190'
p339
S'287983.27800'
p340
sS'1193'
p341
S'290941.41700'
p342
sS'1192'
p343
S'289952.35400'
p344
sS'1195'
p345
S'292929.39700'
p346
sS'1194'
p347
S'291933.76200'
p348
sS'1197'
p349
S'294929.78600'
p350
sS'1196'
p351
S'293927.55300'
p352
sS'1759'
p353
S'1806918.38000'
p354
sS'1758'
p355
S'1801427.45000'
p356
sS'1757'
p357
S'1795952.11000'
p358
sS'1756'
p359
S'1790490.94000'
p360
sS'1755'
p361
S'1785046.71000'
p362
sS'1754'
p363
S'1779616.60000'
p364
sS'1753'
p365
S'1774203.37000'
p366
sS'1752'
p367
S'1768804.23000'
p368
sS'1751'
p369
S'1763420.53000'
p370
sS'1750'
p371
S'1758052.25000'
p372
sS'1177'
p373
S'275492.05000'
p374
sS'1176'
p375
S'274553.08700'
p376
sS'1175'
p377
S'273617.29400'
p378
sS'1174'
p379
S'272683.91100'
p380
sS'1173'
p381
S'271753.68700'
p382
sS'1172'
p383
S'270826.61500'
p384
sS'1171'
p385
S'269902.68900'
p386
sS'1170'
p387
S'268981.15200'
p388
sS'1179'
p389
S'277380.27600'
p390
sS'1178'
p391
S'276434.95000'
p392
sS'511'
p393
S'24751.36620'
p394
sS'2964'
p395
S'45758956.80000'
p396
sS'510'
p397
S'24654.13590'
p398
sS'3440'
p399
S'133579080.00000'
p400
sS'513'
p401
S'24946.69400'
p402
sS'1285'
p403
S'396962.51500'
p404
sS'1284'
p405
S'395635.20000'
p406
sS'1287'
p407
S'399629.86500'
p408
sS'512'
p409
S'24848.81320'
p410
sS'1281'
p411
S'391677.73000'
p412
sS'1280'
p413
S'390366.99400'
p414
sS'1283'
p415
S'394311.82500'
p416
sS'1282'
p417
S'392992.38400'
p418
sS'1003'
p419
S'150747.95700'
p420
sS'879'
p421
S'97090.24930'
p422
sS'1289'
p423
S'402313.93900'
p424
sS'1288'
p425
S'400969.91600'
p426
sS'514'
p427
S'25044.79310'
p428
sS'3430'
p429
S'130736251.00000'
p430
sS'1579'
p431
S'1033832.26000'
p432
sS'1578'
p433
S'1030568.58000'
p434
sS'689'
p435
S'48645.00640'
p436
sS'688'
p437
S'48465.31780'
p438
sS'3431'
p439
S'131018028.00000'
p440
sS'685'
p441
S'47930.32600'
p442
sS'684'
p443
S'47752.90080'
p444
sS'687'
p445
S'48286.36570'
p446
sS'686'
p447
S'48108.14750'
p448
sS'681'
p449
S'47225.32350'
p450
sS'680'
p451
S'47050.46900'
p452
sS'683'
p453
S'47576.53840'
p454
sS'682'
p455
S'47400.56880'
p456
sS'458'
p457
S'20022.25370'
p458
sS'3433'
p459
S'131583246.00000'
p460
sS'1226'
p461
S'325436.65300'
p462
sS'3434'
p463
S'131866692.00000'
p464
sS'621'
p465
S'37749.04730'
p466
sS'873'
p467
S'95024.87400'
p468
sS'1224'
p469
S'323240.57200'
p470
sS'3436'
p471
S'132435249.00000'
p472
sS'1223'
p473
S'322147.37500'
p474
sS'3437'
p475
S'132720365.00000'
p476
sS'1222'
p477
S'321057.66700'
p478
sS'2741'
p479
S'26724206.80000'
p480
sS'1221'
p481
S'319972.23900'
p482
sS'2740'
p483
S'26658346.50000'
p484
sS'1220'
p485
S'318889.48500'
p486
sS'2743'
p487
S'26856372.10000'
p488
sS'407'
p489
S'16179.53470'
p490
sS'406'
p491
S'16110.30760'
p492
sS'405'
p493
S'16041.07380'
p494
sS'404'
p495
S'15972.13770'
p496
sS'403'
p497
S'15903.49760'
p498
sS'402'
p499
S'15835.00150'
p500
sS'401'
p501
S'15766.64930'
p502
sS'400'
p503
S'15698.59020'
p504
sS'1379'
p505
S'542342.59000'
p506
sS'1378'
p507
S'540560.56100'
p508
sS'1342'
p509
S'479973.55700'
p510
sS'409'
p511
S'16318.88750'
p512
sS'408'
p513
S'16249.21440'
p514
sS'453'
p515
S'19617.27120'
p516
sS'2747'
p517
S'27122499.80000'
p518
sS'454'
p519
S'19697.66330'
p520
sS'2148'
p521
S'5625094.25000'
p522
sS'455'
p523
S'19778.41050'
p524
sS'2749'
p525
S'27256467.50000'
p526
sS'1346'
p527
S'486374.81800'
p528
sS'2748'
p529
S'27189408.10000'
p530
sS'1347'
p531
S'487987.64700'
p532
sS'3206'
p533
S'79872554.20000'
p534
sS'379'
p535
S'14315.46710'
p536
sS'378'
p537
S'14251.72020'
p538
sS'371'
p539
S'13810.92300'
p540
sS'370'
p541
S'13748.75670'
p542
sS'373'
p543
S'13935.90760'
p544
sS'372'
p545
S'13873.35090'
p546
sS'375'
p547
S'14061.67830'
p548
sS'374'
p549
S'13998.72800'
p550
sS'377'
p551
S'14188.24180'
p552
sS'376'
p553
S'14124.89450'
p554
sS'2295'
p555
S'8432612.36000'
p556
sS'3093'
p557
S'61783577.00000'
p558
sS'3205'
p559
S'79693224.40000'
p560
sS'393'
p561
S'15227.76890'
p562
sS'392'
p563
S'15161.27860'
p564
sS'391'
p565
S'15095.07160'
p566
sS'390'
p567
S'15029.00250'
p568
sS'397'
p569
S'15495.56420'
p570
sS'396'
p571
S'15428.36850'
p572
sS'395'
p573
S'15361.31330'
p574
sS'394'
p575
S'15294.39830'
p576
sS'399'
p577
S'15630.67390'
p578
sS'398'
p579
S'15563.04820'
p580
sS'895'
p581
S'102809.58800'
p582
sS'2309'
p583
S'8758289.82000'
p584
sS'2308'
p585
S'8734648.17000'
p586
sS'2301'
p587
S'8570797.63000'
p588
sS'2300'
p589
S'8547624.25000'
p590
sS'2303'
p591
S'8617322.70000'
p592
sS'2302'
p593
S'8594031.12000'
p594
sS'2305'
p595
S'8664078.31000'
p596
sS'2304'
p597
S'8640670.34000'
p598
sS'2307'
p599
S'8711067.15000'
p600
sS'2306'
p601
S'8687542.49000'
p602
sS'2746'
p603
S'27055742.50000'
p604
sS'3203'
p605
S'79335665.30000'
p606
sS'245'
p607
S'7178.04429'
p608
sS'244'
p609
S'7133.67772'
p610
sS'247'
p611
S'7267.28524'
p612
sS'246'
p613
S'7222.65175'
p614
sS'241'
p615
S'7001.02121'
p616
sS'240'
p617
S'6957.04461'
p618
sS'243'
p619
S'7089.33749'
p620
sS'242'
p621
S'7045.09533'
p622
sS'249'
p623
S'7356.91773'
p624
sS'248'
p625
S'7312.01618'
p626
sS'2275'
p627
S'7986670.66000'
p628
sS'2274'
p629
S'7964952.96000'
p630
sS'2277'
p631
S'8030266.27000'
p632
sS'2276'
p633
S'8008440.37000'
p634
sS'2271'
p635
S'7900129.69000'
p636
sS'2270'
p637
S'7878631.64000'
p638
sS'2273'
p639
S'7943291.30000'
p640
sS'2272'
p641
S'7921683.57000'
p642
sS'2279'
p643
S'8074082.80000'
p644
sS'2278'
p645
S'8052146.37000'
p646
sS'2337'
p647
S'9444645.76000'
p648
sS'2198'
p649
S'6464934.82000'
p650
sS'2459'
p651
S'13052205.90000'
p652
sS'2458'
p653
S'13018085.30000'
p654
sS'2455'
p655
S'12916209.70000'
p656
sS'2454'
p657
S'12882416.80000'
p658
sS'2457'
p659
S'12984045.10000'
p660
sS'2456'
p661
S'12950087.40000'
p662
sS'2451'
p663
S'12781519.20000'
p664
sS'2450'
p665
S'12748047.60000'
p666
sS'2453'
p667
S'12848701.40000'
p668
sS'2452'
p669
S'12815070.40000'
p670
sS'179'
p671
S'4477.02908'
p672
sS'178'
p673
S'4439.63957'
p674
sS'177'
p675
S'4402.40025'
p676
sS'176'
p677
S'4365.26668'
p678
sS'175'
p679
S'4328.23913'
p680
sS'174'
p681
S'4291.31789'
p682
sS'173'
p683
S'4254.50325'
p684
sS'172'
p685
S'4217.79551'
p686
sS'171'
p687
S'4181.19497'
p688
sS'170'
p689
S'4144.74336'
p690
sS'2051'
p691
S'4275679.88000'
p692
sS'1502'
p693
S'808937.03600'
p694
sS'2053'
p695
S'4300181.91000'
p696
sS'2052'
p697
S'4287915.85000'
p698
sS'2055'
p699
S'4324811.52000'
p700
sS'2054'
p701
S'4312481.62000'
p702
sS'2057'
p703
S'4349572.59000'
p704
sS'1503'
p705
S'811537.43100'
p706
sS'2059'
p707
S'4374465.51000'
p708
sS'2058'
p709
S'4362002.11000'
p710
sS'1500'
p711
S'803757.72200'
p712
sS'1501'
p713
S'806342.71000'
p714
sS'1506'
p715
S'819389.40400'
p716
sS'2968'
p717
S'46192354.90000'
p718
sS'1507'
p719
S'822021.87500'
p720
sS'1367'
p721
S'521323.37400'
p722
sS'1504'
p723
S'814147.19500'
p724
sS'1505'
p725
S'816764.14800'
p726
sS'2157'
p727
S'5768413.19000'
p728
sS'3087'
p729
S'60937111.10000'
p730
sS'1227'
p731
S'326540.35500'
p732
sS'3086'
p733
S'60797068.60000'
p734
sS'1977'
p735
S'3454840.46000'
p736
sS'3083'
p737
S'60378705.60000'
p738
sS'2699'
p739
S'24082778.00000'
p740
sS'1976'
p741
S'3444821.43000'
p742
sS'2697'
p743
S'23963182.40000'
p744
sS'2696'
p745
S'23903588.40000'
p746
sS'2695'
p747
S'23844129.10000'
p748
sS'659'
p749
S'43518.79490'
p750
sS'2693'
p751
S'23725619.40000'
p752
sS'1975'
p753
S'3434829.38000'
p754
sS'2691'
p755
S'23607649.50000'
p756
sS'2690'
p757
S'23548866.90000'
p758
sS'2405'
p759
S'11322630.40000'
p760
sS'1974'
p761
S'3424864.25000'
p762
sS'1973'
p763
S'3414927.67000'
p764
sS'1972'
p765
S'3405014.63000'
p766
sS'1971'
p767
S'3395130.05000'
p768
sS'1970'
p769
S'3385272.26000'
p770
sS'3232'
p771
S'84666547.80000'
p772
sS'3233'
p773
S'84856071.20000'
p774
sS'3230'
p775
S'84288655.50000'
p776
sS'3231'
p777
S'84477408.20000'
p778
sS'1968'
p779
S'3365635.18000'
p780
sS'1969'
p781
S'3375441.19000'
p782
sS'1618'
p783
S'1168876.28000'
p784
sS'1619'
p785
S'1172546.68000'
p786
sS'1616'
p787
S'1161568.13000'
p788
sS'1617'
p789
S'1165217.18000'
p790
sS'1614'
p791
S'1154302.60000'
p792
sS'1615'
p793
S'1157930.35000'
p794
sS'1612'
p795
S'1147079.52000'
p796
sS'1613'
p797
S'1150686.07000'
p798
sS'1610'
p799
S'1139899.99000'
p800
sS'1611'
p801
S'1143484.17000'
p802
sS'1985'
p803
S'3535966.52000'
p804
sS'2873'
p805
S'36850270.00000'
p806
sS'2872'
p807
S'36761874.70000'
p808
sS'2871'
p809
S'36673676.50000'
p810
sS'2870'
p811
S'36585669.30000'
p812
sS'2877'
p813
S'37205795.10000'
p814
sS'2876'
p815
S'37116620.70000'
p816
sS'2875'
p817
S'37027641.40000'
p818
sS'2542'
p819
S'16188487.40000'
p820
sS'2879'
p821
S'37384732.90000'
p822
sS'2878'
p823
S'37295164.80000'
p824
sS'3355'
p825
S'111112327.00000'
p826
sS'3354'
p827
S'110869898.00000'
p828
sS'3357'
p829
S'111598633.00000'
p830
sS'3356'
p831
S'111355237.00000'
p832
sS'3351'
p833
S'110145509.00000'
p834
sS'3350'
p835
S'109905005.00000'
p836
sS'3353'
p837
S'110627953.00000'
p838
sS'3352'
p839
S'110386489.00000'
p840
sS'3359'
p841
S'112086884.00000'
p842
sS'3358'
p843
S'111842515.00000'
p844
sS'2544'
p845
S'16271951.30000'
p846
sS'1768'
p847
S'1857045.15000'
p848
sS'1769'
p849
S'1862693.33000'
p850
sS'1762'
p851
S'1823486.35000'
p852
sS'1763'
p853
S'1829039.89000'
p854
sS'1760'
p855
S'1812424.93000'
p856
sS'1761'
p857
S'1817948.51000'
p858
sS'1766'
p859
S'1845794.87000'
p860
sS'1767'
p861
S'1851412.81000'
p862
sS'1764'
p863
S'1834609.14000'
p864
sS'1765'
p865
S'1840194.13000'
p866
sS'1142'
p867
S'244368.90300'
p868
sS'1143'
p869
S'245209.48700'
p870
sS'1140'
p871
S'242695.16100'
p872
sS'1141'
p873
S'243530.55500'
p874
sS'1146'
p875
S'247749.05800'
p876
sS'1147'
p877
S'248600.81400'
p878
sS'1144'
p879
S'246053.03600'
p880
sS'1145'
p881
S'246899.55800'
p882
sS'1148'
p883
S'249455.56100'
p884
sS'1149'
p885
S'250313.30500'
p886
sS'2967'
p887
S'46083653.60000'
p888
sS'2966'
p889
S'45975189.00000'
p890
sS'2402'
p891
S'11233022.80000'
p892
sS'692'
p893
S'49187.83650'
p894
sS'693'
p895
S'49370.15410'
p896
sS'690'
p897
S'48825.43410'
p898
sS'691'
p899
S'49006.26400'
p900
sS'696'
p901
S'49920.57390'
p902
sS'697'
p903
S'50105.20760'
p904
sS'694'
p905
S'49552.87780'
p906
sS'695'
p907
S'49736.35030'
p908
sS'698'
p909
S'50290.59610'
p910
sS'699'
p911
S'50476.74190'
p912
sS'1548'
p913
S'937045.84500'
p914
sS'1549'
p915
S'940030.67900'
p916
sS'542'
p917
S'27933.09280'
p918
sS'543'
p919
S'28041.27550'
p920
sS'540'
p921
S'27717.45460'
p922
sS'541'
p923
S'27825.15260'
p924
sS'546'
p925
S'28368.46980'
p926
sS'547'
p927
S'28478.34310'
p928
sS'544'
p929
S'28149.93740'
p930
sS'545'
p931
S'28259.08080'
p932
sS'548'
p933
S'28588.46370'
p934
sS'549'
p935
S'28699.07170'
p936
sS'1782'
p937
S'1937594.65000'
p938
sS'1783'
p939
S'1943471.41000'
p940
sS'1784'
p941
S'1949364.37000'
p942
sS'1785'
p943
S'1955273.58000'
p944
sS'1786'
p945
S'1961199.05000'
p946
sS'2388'
p947
S'10823410.50000'
p948
sS'1787'
p949
S'1967142.23000'
p950
sS'3320'
p951
S'102909079.00000'
p952
sS'414'
p953
S'16671.17930'
p954
sS'415'
p955
S'16742.21140'
p956
sS'416'
p957
S'16813.55190'
p958
sS'417'
p959
S'16885.04390'
p960
sS'410'
p961
S'16389.01670'
p962
sS'411'
p963
S'16459.13930'
p964
sS'412'
p965
S'16529.56570'
p966
sS'413'
p967
S'16600.29740'
p968
sS'1384'
p969
S'551333.97100'
p970
sS'1385'
p971
S'553148.56300'
p972
sS'1386'
p973
S'554968.94000'
p974
sS'1387'
p975
S'556795.11300'
p976
sS'418'
p977
S'16956.84670'
p978
sS'419'
p979
S'17028.80210'
p980
sS'1382'
p981
S'547720.16700'
p982
sS'1383'
p983
S'549524.18600'
p984
sS'2446'
p985
S'12614969.30000'
p986
sS'2438'
p987
S'12352632.60000'
p988
sS'3042'
p989
S'54918739.60000'
p990
sS'368'
p991
S'13624.80730'
p992
sS'369'
p993
S'13686.71810'
p994
sS'366'
p995
S'13501.62990'
p996
sS'367'
p997
S'13563.15520'
p998
sS'364'
p999
S'13379.08850'
p1000
sS'365'
p1001
S'13440.23110'
p1002
sS'362'
p1003
S'13257.43690'
p1004
sS'363'
p1005
S'13318.20050'
p1006
sS'360'
p1007
S'13136.28330'
p1008
sS'361'
p1009
S'13196.79780'
p1010
sS'2760'
p1011
S'28004196.20000'
p1012
sS'3202'
p1013
S'79157435.10000'
p1014
sS'380'
p1015
S'14379.34630'
p1016
sS'381'
p1017
S'14443.35770'
p1018
sS'382'
p1019
S'14507.64050'
p1020
sS'383'
p1021
S'14572.19640'
p1022
sS'384'
p1023
S'14636.88680'
p1024
sS'385'
p1025
S'14701.71160'
p1026
sS'386'
p1027
S'14766.81230'
p1028
sS'387'
p1029
S'14832.04870'
p1030
sS'388'
p1031
S'14897.56320'
p1032
sS'389'
p1033
S'14963.21440'
p1034
sS'3215'
p1035
S'81503203.00000'
p1036
sS'2792'
p1037
S'30287562.70000'
p1038
sS'3216'
p1039
S'81686249.40000'
p1040
sS'2190'
p1041
S'6323222.32000'
p1042
sS'2191'
p1043
S'6340779.52000'
p1044
sS'258'
p1045
S'7765.88966'
p1046
sS'259'
p1047
S'7811.92328'
p1048
sS'2194'
p1049
S'6393717.20000'
p1050
sS'2195'
p1051
S'6411453.27000'
p1052
sS'2196'
p1053
S'6429234.21000'
p1054
sS'2197'
p1055
S'6447062.02000'
p1056
sS'252'
p1057
S'7492.21001'
p1058
sS'253'
p1059
S'7537.57790'
p1060
sS'250'
p1061
S'7401.91732'
p1062
sS'251'
p1063
S'7447.01479'
p1064
sS'256'
p1065
S'7674.19463'
p1066
sS'257'
p1067
S'7720.03146'
p1068
sS'254'
p1069
S'7582.96860'
p1070
sS'255'
p1071
S'7628.53258'
p1072
sS'2200'
p1073
S'6500817.56000'
p1074
sS'2201'
p1075
S'6518827.63000'
p1076
sS'2202'
p1077
S'6536882.92000'
p1078
sS'2203'
p1079
S'6554985.46000'
p1080
sS'2204'
p1081
S'6573133.35000'
p1082
sS'2205'
p1083
S'6591328.60000'
p1084
sS'2206'
p1085
S'6609569.32000'
p1086
sS'2207'
p1087
S'6627855.57000'
p1088
sS'2208'
p1089
S'6646191.34000'
p1090
sS'2209'
p1091
S'6664570.80000'
p1092
sS'3210'
p1093
S'80593570.20000'
p1094
sS'1679'
p1095
S'1413510.58000'
p1096
sS'2428'
p1097
S'12031765.70000'
p1098
sS'2429'
p1099
S'12063503.10000'
p1100
sS'2400'
p1101
S'11173645.30000'
p1102
sS'2420'
p1103
S'11780606.50000'
p1104
sS'2421'
p1105
S'11811736.40000'
p1106
sS'2422'
p1107
S'11842940.70000'
p1108
sS'2423'
p1109
S'11874219.60000'
p1110
sS'2424'
p1111
S'11905577.70000'
p1112
sS'1849'
p1113
S'2370025.08000'
p1114
sS'2426'
p1115
S'11968518.40000'
p1116
sS'2427'
p1117
S'12000103.40000'
p1118
sS'2432'
p1119
S'12159180.90000'
p1120
sS'1848'
p1121
S'2362960.01000'
p1122
sS'168'
p1123
S'4072.08024'
p1124
sS'169'
p1125
S'4108.35775'
p1126
sS'164'
p1127
S'3928.09677'
p1128
sS'165'
p1129
S'3963.93909'
p1130
sS'166'
p1131
S'3999.89078'
p1132
sS'167'
p1133
S'4035.91115'
p1134
sS'160'
p1135
S'3785.90317'
p1136
sS'161'
p1137
S'3821.30556'
p1138
sS'162'
p1139
S'3856.78003'
p1140
sS'163'
p1141
S'3892.40303'
p1142
sS'3257'
p1143
S'89522570.90000'
p1144
sS'3212'
p1145
S'80956306.30000'
p1146
sS'2518'
p1147
S'15217111.30000'
p1148
sS'2519'
p1149
S'15256491.30000'
p1150
sS'1842'
p1151
S'2320978.65000'
p1152
sS'2514'
p1153
S'15060519.80000'
p1154
sS'2515'
p1155
S'15099528.20000'
p1156
sS'2516'
p1157
S'15138629.80000'
p1158
sS'2517'
p1159
S'15177825.00000'
p1160
sS'2510'
p1161
S'14905408.00000'
p1162
sS'1841'
p1163
S'2314049.16000'
p1164
sS'2512'
p1165
S'14982780.30000'
p1166
sS'2513'
p1167
S'15021604.70000'
p1168
sS'2734'
p1169
S'26266306.20000'
p1170
sS'2735'
p1171
S'26331278.20000'
p1172
sS'2736'
p1173
S'26396396.50000'
p1174
sS'1840'
p1175
S'2307138.93000'
p1176
sS'2730'
p1177
S'26007888.70000'
p1178
sS'2731'
p1179
S'26072274.50000'
p1180
sS'2732'
p1181
S'26136805.90000'
p1182
sS'2733'
p1183
S'26201483.10000'
p1184
sS'3226'
p1185
S'83537488.70000'
p1186
sS'2738'
p1187
S'26527075.20000'
p1188
sS'2739'
p1189
S'26592636.00000'
p1190
sS'3213'
p1191
S'81138231.80000'
p1192
sS'678'
p1193
S'46702.92000'
p1194
sS'679'
p1195
S'46876.33530'
p1196
sS'1814'
p1197
S'2134058.63000'
p1198
sS'1815'
p1199
S'2140485.79000'
p1200
sS'1816'
p1201
S'2146931.46000'
p1202
sS'1817'
p1203
S'2153394.20000'
p1204
sS'1810'
p1205
S'2108525.77000'
p1206
sS'1811'
p1207
S'2114882.09000'
p1208
sS'1812'
p1209
S'2121256.80000'
p1210
sS'1813'
p1211
S'2127648.49000'
p1212
sS'1818'
p1213
S'2159876.97000'
p1214
sS'1819'
p1215
S'2166376.87000'
p1216
sS'670'
p1217
S'45336.30250'
p1218
sS'2795'
p1219
S'30510142.30000'
p1220
sS'671'
p1221
S'45505.02320'
p1222
sS'2401'
p1223
S'11203297.70000'
p1224
sS'1609'
p1225
S'1136324.53000'
p1226
sS'1608'
p1227
S'1132761.42000'
p1228
sS'3229'
p1229
S'84100289.40000'
p1230
sS'3228'
p1231
S'83912305.80000'
p1232
sS'1979'
p1233
S'3474957.90000'
p1234
sS'1978'
p1235
S'3464886.49000'
p1236
sS'1601'
p1237
S'1108103.25000'
p1238
sS'1600'
p1239
S'1104621.31000'
p1240
sS'1603'
p1241
S'1115096.50000'
p1242
sS'1602'
p1243
S'1111594.97000'
p1244
sS'1605'
p1245
S'1122131.44000'
p1246
sS'1604'
p1247
S'1118609.05000'
p1248
sS'1607'
p1249
S'1129207.00000'
p1250
sS'1606'
p1251
S'1125663.68000'
p1252
sS'809'
p1253
S'75456.66210'
p1254
sS'808'
p1255
S'75183.95130'
p1256
sS'803'
p1257
S'73834.22560'
p1258
sS'802'
p1259
S'73567.11470'
p1260
sS'801'
p1261
S'73300.57550'
p1262
sS'800'
p1263
S'73035.45350'
p1264
sS'807'
p1265
S'74911.82270'
p1266
sS'806'
p1267
S'74641.13120'
p1268
sS'805'
p1269
S'74371.01800'
p1270
sS'804'
p1271
S'74102.33470'
p1272
sS'2848'
p1273
S'34697783.70000'
p1274
sS'2849'
p1275
S'34781623.60000'
p1276
sS'2846'
p1277
S'34530657.30000'
p1278
sS'2847'
p1279
S'34614127.40000'
p1280
sS'2844'
p1281
S'34364269.20000'
p1282
sS'2845'
p1283
S'34447373.20000'
p1284
sS'2842'
p1285
S'34198617.80000'
p1286
sS'2843'
p1287
S'34281350.80000'
p1288
sS'2840'
p1289
S'34033695.90000'
p1290
sS'2841'
p1291
S'34116064.30000'
p1292
sS'3039'
p1293
S'54537527.80000'
p1294
sS'3321'
p1295
S'103135567.00000'
p1296
sS'3322'
p1297
S'103362510.00000'
p1298
sS'3323'
p1299
S'103589908.00000'
p1300
sS'3324'
p1301
S'103817763.00000'
p1302
sS'3325'
p1303
S'104046075.00000'
p1304
sS'3326'
p1305
S'104274843.00000'
p1306
sS'3327'
p1307
S'104504073.00000'
p1308
sS'3328'
p1309
S'104733764.00000'
p1310
sS'3329'
p1311
S'104963914.00000'
p1312
sS'1775'
p1313
S'1896923.40000'
p1314
sS'1774'
p1315
S'1891178.27000'
p1316
sS'1777'
p1317
S'1908461.71000'
p1318
sS'1776'
p1319
S'1902684.53000'
p1320
sS'1771'
p1321
S'1874038.70000'
p1322
sS'1770'
p1323
S'1868358.78000'
p1324
sS'1773'
p1325
S'1885449.13000'
p1326
sS'1772'
p1327
S'1879735.95000'
p1328
sS'1779'
p1329
S'1920065.68000'
p1330
sS'1778'
p1331
S'1914256.36000'
p1332
sS'608'
p1333
S'35943.94030'
p1334
sS'2998'
p1335
S'49564473.50000'
p1336
sS'1159'
p1337
S'259043.69600'
p1338
sS'1158'
p1339
S'258157.85500'
p1340
sS'2999'
p1341
S'49680659.60000'
p1342
sS'1155'
p1343
S'255517.17700'
p1344
sS'1154'
p1345
S'254642.79200'
p1346
sS'1157'
p1347
S'257275.07100'
p1348
sS'1156'
p1349
S'256394.60100'
p1350
sS'1151'
p1351
S'252036.34300'
p1352
sS'1150'
p1353
S'251173.32000'
p1354
sS'1153'
p1355
S'253771.44000'
p1356
sS'1152'
p1357
S'252902.38100'
p1358
sS'1555'
p1359
S'958129.33800'
p1360
sS'2618'
p1361
S'19652473.30000'
p1362
sS'1554'
p1363
S'955090.56700'
p1364
sS'1551'
p1365
S'946027.21300'
p1366
sS'1550'
p1367
S'943024.46300'
p1368
sS'1553'
p1369
S'952060.82500'
p1370
sS'1552'
p1371
S'949040.09500'
p1372
sS'59'
p1373
S'860.71764'
p1374
sS'58'
p1375
S'839.30480'
p1376
sS'1557'
p1377
S'964234.02400'
p1378
sS'1556'
p1379
S'961177.15100'
p1380
sS'55'
p1381
S'776.16902'
p1382
sS'54'
p1383
S'755.49725'
p1384
sS'57'
p1385
S'818.07460'
p1386
sS'56'
p1387
S'797.02875'
p1388
sS'51'
p1389
S'694.62909'
p1390
sS'50'
p1391
S'674.72890'
p1392
sS'53'
p1393
S'735.01535'
p1394
sS'52'
p1395
S'714.72528'
p1396
sS'537'
p1397
S'27396.97300'
p1398
sS'536'
p1399
S'27290.70200'
p1400
sS'535'
p1401
S'27184.90050'
p1402
sS'534'
p1403
S'27079.56660'
p1404
sS'533'
p1405
S'26974.46850'
p1406
sS'532'
p1407
S'26869.83490'
p1408
sS'531'
p1409
S'26765.43560'
p1410
sS'530'
p1411
S'26661.49790'
p1412
sS'2992'
p1413
S'48872564.20000'
p1414
sS'539'
p1415
S'27610.23210'
p1416
sS'538'
p1417
S'27503.48300'
p1418
sS'2993'
p1419
S'48987265.20000'
p1420
sS'1558'
p1421
S'967299.97200'
p1422
sS'2994'
p1423
S'49102212.50000'
p1424
sS'2995'
p1425
S'49217406.40000'
p1426
sS'2805'
p1427
S'31262938.70000'
p1428
sS'3294'
p1429
S'97177440.40000'
p1430
sS'2996'
p1431
S'49332847.20000'
p1432
sS'3295'
p1433
S'97392383.60000'
p1434
sS'2997'
p1435
S'49448535.10000'
p1436
sS'3296'
p1437
S'97607760.20000'
p1438
sS'3297'
p1439
S'97823570.70000'
p1440
sS'3290'
p1441
S'96321994.10000'
p1442
sS'3291'
p1443
S'96535211.20000'
p1444
sS'429'
p1445
S'17761.24170'
p1446
sS'428'
p1447
S'17687.07990'
p1448
sS'3292'
p1449
S'96748856.40000'
p1450
sS'1399'
p1451
S'579155.42500'
p1452
sS'1398'
p1453
S'577260.82000'
p1454
sS'421'
p1455
S'17173.49360'
p1456
sS'420'
p1457
S'17101.07090'
p1458
sS'423'
p1459
S'17319.12550'
p1460
sS'422'
p1461
S'17246.23190'
p1462
sS'425'
p1463
S'17465.54200'
p1464
sS'424'
p1465
S'17392.17440'
p1466
sS'427'
p1467
S'17612.91160'
p1468
sS'426'
p1469
S'17539.06620'
p1470
sS'3452'
p1471
S'137064885.00000'
p1472
sS'3453'
p1473
S'137359080.00000'
p1474
sS'3450'
p1475
S'136478214.00000'
p1476
sS'3451'
p1477
S'136771261.00000'
p1478
sS'3456'
p1479
S'138245132.00000'
p1480
sS'3457'
p1481
S'138541642.00000'
p1482
sS'3454'
p1483
S'137653853.00000'
p1484
sS'3455'
p1485
S'137949203.00000'
p1486
sS'3474'
p1487
S'143671871.00000'
p1488
sS'3475'
p1489
S'143978979.00000'
p1490
sS'2183'
p1491
S'6201580.02000'
p1492
sS'2182'
p1493
S'6184381.56000'
p1494
sS'2181'
p1495
S'6167225.27000'
p1496
sS'2180'
p1497
S'6150113.01000'
p1498
sS'2187'
p1499
S'6270823.69000'
p1500
sS'2186'
p1501
S'6253446.33000'
p1502
sS'229'
p1503
S'6480.43155'
p1504
sS'228'
p1505
S'6437.76230'
p1506
sS'227'
p1507
S'6395.19107'
p1508
sS'226'
p1509
S'6352.71805'
p1510
sS'225'
p1511
S'6310.34341'
p1512
sS'224'
p1513
S'6268.12993'
p1514
sS'223'
p1515
S'6225.95221'
p1516
sS'222'
p1517
S'6183.93518'
p1518
sS'221'
p1519
S'6142.01646'
p1520
sS'220'
p1521
S'6100.19624'
p1522
sS'2213'
p1523
S'6738564.06000'
p1524
sS'2212'
p1525
S'6719995.48000'
p1526
sS'2211'
p1527
S'6701472.81000'
p1528
sS'2210'
p1529
S'6682999.90000'
p1530
sS'2217'
p1531
S'6813314.35000'
p1532
sS'2216'
p1533
S'6794555.65000'
p1534
sS'2215'
p1535
S'6775845.07000'
p1536
sS'2214'
p1537
S'6757180.57000'
p1538
sS'2219'
p1539
S'6850974.37000'
p1540
sS'2218'
p1541
S'6832121.23000'
p1542
sS'2681'
p1543
S'23025825.10000'
p1544
sS'2230'
p1545
S'7061561.33000'
p1546
sS'151'
p1547
S'3472.52543'
p1548
sS'150'
p1549
S'3438.28072'
p1550
sS'153'
p1551
S'3541.35480'
p1552
sS'152'
p1553
S'3506.88357'
p1554
sS'155'
p1555
S'3610.67115'
p1556
sS'154'
p1557
S'3575.97451'
p1558
sS'157'
p1559
S'3680.43691'
p1560
sS'156'
p1561
S'3645.51626'
p1562
sS'159'
p1563
S'3750.64929'
p1564
sS'158'
p1565
S'3715.46886'
p1566
sS'2431'
p1567
S'12127210.70000'
p1568
sS'2430'
p1569
S'12095318.10000'
p1570
sS'2437'
p1571
S'12320196.40000'
p1572
sS'2436'
p1573
S'12287836.20000'
p1574
sS'2435'
p1575
S'12255556.50000'
p1576
sS'2434'
p1577
S'12223354.90000'
p1578
sS'2236'
p1579
S'7178925.09000'
p1580
sS'3470'
p1581
S'142449406.00000'
p1582
sS'2509'
p1583
S'14866859.90000'
p1584
sS'2508'
p1585
S'14828404.40000'
p1586
sS'2507'
p1587
S'14790039.20000'
p1588
sS'2506'
p1589
S'14751766.40000'
p1590
sS'2505'
p1591
S'14713583.50000'
p1592
sS'2504'
p1593
S'14675490.60000'
p1594
sS'2503'
p1595
S'14637489.70000'
p1596
sS'2502'
p1597
S'14599578.50000'
p1598
sS'2501'
p1599
S'14561759.20000'
p1600
sS'2500'
p1601
S'14524026.90000'
p1602
sS'2727'
p1603
S'25815606.20000'
p1604
sS'2726'
p1605
S'25751804.10000'
p1606
sS'2725'
p1607
S'25688144.00000'
p1608
sS'2724'
p1609
S'25624628.60000'
p1610
sS'2723'
p1611
S'25561257.70000'
p1612
sS'2722'
p1613
S'25498031.10000'
p1614
sS'2721'
p1615
S'25434946.00000'
p1616
sS'2720'
p1617
S'25372004.90000'
p1618
sS'2729'
p1619
S'25943651.10000'
p1620
sS'2728'
p1621
S'25879556.10000'
p1622
sS'2199'
p1623
S'6482852.66000'
p1624
sS'1807'
p1625
S'2089564.00000'
p1626
sS'1806'
p1627
S'2083278.08000'
p1628
sS'1805'
p1629
S'2077010.42000'
p1630
sS'1804'
p1631
S'2070760.99000'
p1632
sS'1803'
p1633
S'2064526.88000'
p1634
sS'1802'
p1635
S'2058312.38000'
p1636
sS'1801'
p1637
S'2052114.58000'
p1638
sS'1800'
p1639
S'2045933.46000'
p1640
sS'1809'
p1641
S'2102187.81000'
p1642
sS'1808'
p1643
S'2095866.75000'
p1644
sS'3089'
p1645
S'61218080.40000'
p1646
sS'3473'
p1647
S'143365360.00000'
p1648
sS'3088'
p1649
S'61077448.30000'
p1650
sS'3258'
p1651
S'89721998.10000'
p1652
sS'1524'
p1653
S'868009.14900'
p1654
sS'1948'
p1655
S'3174980.88000'
p1656
sS'1544'
p1657
S'925193.42800'
p1658
sS'1525'
p1659
S'870788.21400'
p1660
sS'1942'
p1661
S'3119765.06000'
p1662
sS'1943'
p1663
S'3128904.89000'
p1664
sS'1940'
p1665
S'3101559.17000'
p1666
sS'1941'
p1667
S'3110649.29000'
p1668
sS'1946'
p1669
S'3156475.62000'
p1670
sS'1526'
p1671
S'873574.74900'
p1672
sS'1944'
p1673
S'3138070.45000'
p1674
sS'1945'
p1675
S'3147260.14000'
p1676
sS'818'
p1677
S'77954.38400'
p1678
sS'819'
p1679
S'78236.47650'
p1680
sS'1527'
p1681
S'876371.01100'
p1682
sS'810'
p1683
S'75730.38650'
p1684
sS'811'
p1685
S'76004.69550'
p1686
sS'812'
p1687
S'76280.45460'
p1688
sS'813'
p1689
S'76556.80240'
p1690
sS'814'
p1691
S'76834.60750'
p1692
sS'815'
p1693
S'77113.00550'
p1694
sS'816'
p1695
S'77392.43230'
p1696
sS'817'
p1697
S'77672.89080'
p1698
sS'2859'
p1699
S'35630279.70000'
p1700
sS'1545'
p1701
S'928143.75300'
p1702
sS'3495'
p1703
S'150248295.00000'
p1704
sS'1522'
p1705
S'862476.73200'
p1706
sS'1990'
p1707
S'3587559.62000'
p1708
sS'2851'
p1709
S'34949857.70000'
p1710
sS'2850'
p1711
S'34865647.20000'
p1712
sS'2853'
p1713
S'35118839.80000'
p1714
sS'1523'
p1715
S'865238.66000'
p1716
sS'2855'
p1717
S'35288568.90000'
p1718
sS'1993'
p1719
S'3618851.07000'
p1720
sS'2857'
p1721
S'35459046.30000'
p1722
sS'2856'
p1723
S'35373713.60000'
p1724
sS'1490'
p1725
S'778324.39300'
p1726
sS'1397'
p1727
S'575371.15800'
p1728
sS'1492'
p1729
S'783350.01600'
p1730
sS'1493'
p1731
S'785873.91400'
p1732
sS'1494'
p1733
S'788405.94500'
p1734
sS'1495'
p1735
S'790945.03500'
p1736
sS'1496'
p1737
S'793492.28500'
p1738
sS'1396'
p1739
S'573487.41000'
p1740
sS'1498'
p1741
S'798609.14500'
p1742
sS'1499'
p1743
S'801179.87100'
p1744
sS'3339'
p1745
S'107290948.00000'
p1746
sS'3338'
p1747
S'107056142.00000'
p1748
sS'1395'
p1749
S'571609.56600'
p1750
sS'1994'
p1751
S'3629336.21000'
p1752
sS'1700'
p1753
S'1508228.24000'
p1754
sS'1701'
p1755
S'1512883.72000'
p1756
sS'1702'
p1757
S'1517550.82000'
p1758
sS'1394'
p1759
S'569738.59300'
p1760
sS'1704'
p1761
S'1526927.89000'
p1762
sS'1705'
p1763
S'1531635.25000'
p1764
sS'1706'
p1765
S'1536358.28000'
p1766
sS'1707'
p1767
S'1541093.03000'
p1768
sS'1708'
p1769
S'1545842.18000'
p1770
sS'1393'
p1771
S'567871.54500'
p1772
sS'1996'
p1773
S'3650392.93000'
p1774
sS'1392'
p1775
S'566011.34600'
p1776
sS'1391'
p1777
S'564157.00600'
p1778
sS'3217'
p1779
S'81869673.60000'
p1780
sS'1390'
p1781
S'562307.54200'
p1782
sS'1128'
p1783
S'232879.98000'
p1784
sS'1129'
p1785
S'233683.26000'
p1786
sS'1628'
p1787
S'1206064.78000'
p1788
sS'1120'
p1789
S'226547.59600'
p1790
sS'1121'
p1791
S'227330.14900'
p1792
sS'1122'
p1793
S'228115.53700'
p1794
sS'1123'
p1795
S'228903.06300'
p1796
sS'1124'
p1797
S'229693.43600'
p1798
sS'1125'
p1799
S'230485.95600'
p1800
sS'1126'
p1801
S'231281.33400'
p1802
sS'1127'
p1803
S'232079.57600'
p1804
sS'2989'
p1805
S'48529930.70000'
p1806
sS'2988'
p1807
S'48416209.50000'
p1808
sS'3029'
p1809
S'53284226.30000'
p1810
sS'3028'
p1811
S'53160358.00000'
p1812
sS'2983'
p1813
S'47851249.90000'
p1814
sS'2982'
p1815
S'47738983.00000'
p1816
sS'2981'
p1817
S'47626959.70000'
p1818
sS'2980'
p1819
S'47515173.50000'
p1820
sS'2987'
p1821
S'48302730.30000'
p1822
sS'2986'
p1823
S'48189495.90000'
p1824
sS'2985'
p1825
S'48076506.10000'
p1826
sS'2984'
p1827
S'47963757.60000'
p1828
sS'524'
p1829
S'26044.98760'
p1830
sS'525'
p1831
S'26146.86550'
p1832
sS'526'
p1833
S'26249.19640'
p1834
sS'527'
p1835
S'26351.75670'
p1836
sS'520'
p1837
S'25640.85740'
p1838
sS'521'
p1839
S'25741.38500'
p1840
sS'522'
p1841
S'25842.35960'
p1842
sS'523'
p1843
S'25943.56050'
p1844
sS'1014'
p1845
S'156684.09900'
p1846
sS'1015'
p1847
S'157234.64800'
p1848
sS'1016'
p1849
S'157787.47300'
p1850
sS'1017'
p1851
S'158341.36500'
p1852
sS'528'
p1853
S'26454.54640'
p1854
sS'529'
p1855
S'26558.01980'
p1856
sS'1012'
p1857
S'155588.59600'
p1858
sS'1013'
p1859
S'156135.21500'
p1860
sS'1234'
p1861
S'334364.29700'
p1862
sS'1235'
p1863
S'335496.32300'
p1864
sS'1236'
p1865
S'336632.73600'
p1866
sS'1237'
p1867
S'337771.91400'
p1868
sS'1230'
p1869
S'329871.77500'
p1870
sS'1231'
p1871
S'330989.58300'
p1872
sS'1232'
p1873
S'332110.93400'
p1874
sS'1233'
p1875
S'333235.83600'
p1876
sS'1238'
p1877
S'338914.67900'
p1878
sS'1239'
p1879
S'340061.85500'
p1880
sS'2526'
p1881
S'15534790.50000'
p1882
sS'3167'
p1883
S'73145110.00000'
p1884
sS'438'
p1885
S'18440.60200'
p1886
sS'439'
p1887
S'18517.22090'
p1888
sS'436'
p1889
S'18288.02740'
p1890
sS'437'
p1891
S'18364.14760'
p1892
sS'434'
p1893
S'18136.27640'
p1894
sS'435'
p1895
S'18212.07040'
p1896
sS'432'
p1897
S'17985.51240'
p1898
sS'433'
p1899
S'18060.81350'
p1900
sS'430'
p1901
S'17835.89400'
p1902
sS'431'
p1903
S'17910.53980'
p1904
sS'2864'
p1905
S'36061681.00000'
p1906
sS'2481'
p1907
S'13823986.60000'
p1908
sS'2865'
p1909
S'36148531.20000'
p1910
sS'1967'
p1911
S'3355855.82000'
p1912
sS'2868'
p1913
S'36410236.40000'
p1914
sS'3162'
p1915
S'72321132.80000'
p1916
sS'2869'
p1917
S'36497856.10000'
p1918
sS'3082'
p1919
S'60239838.60000'
p1920
sS'1960'
p1921
S'3288137.01000'
p1922
sS'3314'
p1923
S'101559663.00000'
p1924
sS'3163'
p1925
S'72485247.00000'
p1926
sS'3225'
p1927
S'83350657.80000'
p1928
sS'1961'
p1929
S'3297732.46000'
p1930
sS'3160'
p1931
S'71993922.50000'
p1932
sS'3060'
p1933
S'57257638.30000'
p1934
sS'2464'
p1935
S'13224049.20000'
p1936
sS'3065'
p1937
S'57923302.80000'
p1938
sS'2465'
p1939
S'13258667.60000'
p1940
sS'3064'
p1941
S'57789608.90000'
p1942
sS'2466'
p1943
S'13293367.00000'
p1944
sS'3161'
p1945
S'72157360.40000'
p1946
sS'2467'
p1947
S'13328152.10000'
p1948
sS'238'
p1949
S'6869.38458'
p1950
sS'239'
p1951
S'6913.16568'
p1952
sS'234'
p1953
S'6695.44228'
p1954
sS'235'
p1955
S'6738.76443'
p1956
sS'236'
p1957
S'6782.18422'
p1958
sS'237'
p1959
S'6825.76958'
p1960
sS'230'
p1961
S'6523.19864'
p1962
sS'231'
p1963
S'6566.12893'
p1964
sS'232'
p1965
S'6609.09159'
p1966
sS'233'
p1967
S'6652.21794'
p1968
sS'3068'
p1969
S'58326091.90000'
p1970
sS'2462'
p1971
S'13155064.30000'
p1972
sS'2228'
p1973
S'7022834.19000'
p1974
sS'2229'
p1975
S'7042173.29000'
p1976
sS'2226'
p1977
S'6984304.57000'
p1978
sS'2227'
p1979
S'7003543.98000'
p1980
sS'2224'
p1981
S'6945967.98000'
p1982
sS'2225'
p1983
S'6965111.93000'
p1984
sS'2222'
p1985
S'6907825.90000'
p1986
sS'2223'
p1987
S'6926872.66000'
p1988
sS'2220'
p1989
S'6869877.81000'
p1990
sS'2221'
p1991
S'6888827.64000'
p1992
sS'1'
p1993
S'16.26998'
p1994
sS'146'
p1995
S'3302.41071'
p1996
sS'147'
p1997
S'3336.19758'
p1998
sS'144'
p1999
S'3235.15097'
p2000
sS'145'
p2001
S'3268.70647'
p2002
sS'142'
p2003
S'3168.38867'
p2004
sS'143'
p2005
S'3201.71156'
p2006
sS'140'
p2007
S'3102.09397'
p2008
sS'141'
p2009
S'3135.18266'
p2010
sS'2468'
p2011
S'13363018.50000'
p2012
sS'148'
p2013
S'3370.09940'
p2014
sS'149'
p2015
S'3404.11577'
p2016
sS'3401'
p2017
S'122801350.00000'
p2018
sS'2088'
p2019
S'4750509.19000'
p2020
sS'2089'
p2021
S'4763993.43000'
p2022
sS'3400'
p2023
S'122535747.00000'
p2024
sS'2082'
p2025
S'4670340.09000'
p2026
sS'2083'
p2027
S'4683614.96000'
p2028
sS'2080'
p2029
S'4643897.19000'
p2030
sS'2081'
p2031
S'4657102.05000'
p2032
sS'2086'
p2033
S'4723646.61000'
p2034
sS'2087'
p2035
S'4737060.26000'
p2036
sS'2084'
p2037
S'4696923.10000'
p2038
sS'2085'
p2039
S'4710266.37000'
p2040
sS'3342'
p2041
S'107998182.00000'
p2042
sS'2538'
p2043
S'16022737.20000'
p2044
sS'2539'
p2045
S'16064028.80000'
p2046
sS'3343'
p2047
S'108234873.00000'
p2048
sS'2532'
p2049
S'15777032.50000'
p2050
sS'2533'
p2051
S'15817740.40000'
p2052
sS'2530'
p2053
S'15695902.10000'
p2054
sS'2531'
p2055
S'15736417.30000'
p2056
sS'2536'
p2057
S'15940446.70000'
p2058
sS'2537'
p2059
S'15981544.00000'
p2060
sS'2534'
p2061
S'15858546.20000'
p2062
sS'2535'
p2063
S'15899447.40000'
p2064
sS'2712'
p2065
S'24873592.90000'
p2066
sS'2713'
p2067
S'24935401.20000'
p2068
sS'2710'
p2069
S'24750401.40000'
p2070
sS'2711'
p2071
S'24811927.30000'
p2072
sS'2716'
p2073
S'25121666.70000'
p2074
sS'2717'
p2075
S'25184038.70000'
p2076
sS'2714'
p2077
S'24997349.40000'
p2078
sS'2715'
p2079
S'25059437.90000'
p2080
sS'3346'
p2081
S'108947788.00000'
p2082
sS'2718'
p2083
S'25246551.40000'
p2084
sS'2719'
p2085
S'25309207.70000'
p2086
sS'3347'
p2087
S'109186374.00000'
p2088
sS'3409'
p2089
S'124945179.00000'
p2090
sS'3344'
p2091
S'108472036.00000'
p2092
sS'3408'
p2093
S'124675347.00000'
p2094
sS'3345'
p2095
S'108709675.00000'
p2096
sS'1832'
p2097
S'2252543.61000'
p2098
sS'1833'
p2099
S'2259300.88000'
p2100
sS'1830'
p2101
S'2239083.04000'
p2102
sS'1831'
p2103
S'2245803.84000'
p2104
sS'1836'
p2105
S'2279688.42000'
p2106
sS'1837'
p2107
S'2286523.43000'
p2108
sS'1834'
p2109
S'2266078.66000'
p2110
sS'1835'
p2111
S'2272874.00000'
p2112
sS'3090'
p2113
S'61359011.00000'
p2114
sS'1838'
p2115
S'2293376.09000'
p2116
sS'1839'
p2117
S'2300247.91000'
p2118
sS'3075'
p2119
S'59275905.20000'
p2120
sS'2154'
p2121
S'5720270.99000'
p2122
sS'2155'
p2123
S'5736275.83000'
p2124
sS'939'
p2125
S'120249.57000'
p2126
sS'938'
p2127
S'119823.70300'
p2128
sS'2150'
p2129
S'5656656.95000'
p2130
sS'2151'
p2131
S'5672497.88000'
p2132
sS'2152'
p2133
S'5688381.12000'
p2134
sS'2153'
p2135
S'5704304.84000'
p2136
sS'933'
p2137
S'117714.64200'
p2138
sS'932'
p2139
S'117297.07600'
p2140
sS'931'
p2141
S'116881.41400'
p2142
sS'930'
p2143
S'116466.58900'
p2144
sS'937'
p2145
S'119398.69100'
p2146
sS'936'
p2147
S'118975.60400'
p2148
sS'935'
p2149
S'118553.90300'
p2150
sS'934'
p2151
S'118133.58300'
p2152
sS'3091'
p2153
S'61500233.80000'
p2154
sS'1955'
p2155
S'3240541.21000'
p2156
sS'1954'
p2157
S'3231100.04000'
p2158
sS'1957'
p2159
S'3259502.07000'
p2160
sS'1956'
p2161
S'3250010.17000'
p2162
sS'1951'
p2163
S'3202926.64000'
p2164
sS'1950'
p2165
S'3193586.50000'
p2166
sS'1953'
p2167
S'3221683.37000'
p2168
sS'1952'
p2169
S'3212292.79000'
p2170
sS'1959'
p2171
S'3278566.27000'
p2172
sS'1958'
p2173
S'3269021.85000'
p2174
sS'3249'
p2175
S'87941660.40000'
p2176
sS'3248'
p2177
S'87745847.10000'
p2178
sS'3096'
p2179
S'62210823.80000'
p2180
sS'3243'
p2181
S'86772754.00000'
p2182
sS'3242'
p2183
S'86579323.20000'
p2184
sS'3241'
p2185
S'86386283.40000'
p2186
sS'3240'
p2187
S'86193637.80000'
p2188
sS'3247'
p2189
S'87550434.10000'
p2190
sS'3246'
p2191
S'87355421.20000'
p2192
sS'3245'
p2193
S'87160804.40000'
p2194
sS'3244'
p2195
S'86966579.80000'
p2196
sS'829'
p2197
S'81114.55310'
p2198
sS'828'
p2199
S'80821.94610'
p2200
sS'825'
p2201
S'79951.38630'
p2202
sS'824'
p2203
S'79663.01820'
p2204
sS'827'
p2205
S'80530.84820'
p2206
sS'826'
p2207
S'80240.36640'
p2208
sS'821'
p2209
S'78804.22010'
p2210
sS'820'
p2211
S'78520.04660'
p2212
sS'823'
p2213
S'79375.70300'
p2214
sS'822'
p2215
S'79089.43790'
p2216
sS'3097'
p2217
S'62353842.30000'
p2218
sS'1536'
p2219
S'901909.06300'
p2220
sS'2409'
p2221
S'11443129.40000'
p2222
sS'3227'
p2223
S'83724704.50000'
p2224
sS'1483'
p2225
S'760972.63300'
p2226
sS'1482'
p2227
S'758522.82200'
p2228
sS'1481'
p2229
S'756082.06500'
p2230
sS'1480'
p2231
S'753647.13000'
p2232
sS'1487'
p2233
S'770843.35600'
p2234
sS'1486'
p2235
S'768363.63500'
p2236
sS'1485'
p2237
S'765893.02800'
p2238
sS'1484'
p2239
S'763428.28900'
p2240
sS'3306'
p2241
S'99785571.00000'
p2242
sS'3307'
p2243
S'100005776.00000'
p2244
sS'1489'
p2245
S'775822.64200'
p2246
sS'1488'
p2247
S'773328.96800'
p2248
sS'3302'
p2249
S'98909178.70000'
p2250
sS'3303'
p2251
S'99127615.70000'
p2252
sS'3300'
p2253
S'98473624.20000'
p2254
sS'3301'
p2255
S'98691181.60000'
p2256
sS'797'
p2257
S'72245.17400'
p2258
sS'796'
p2259
S'71983.57640'
p2260
sS'795'
p2261
S'71722.54010'
p2262
sS'794'
p2263
S'71462.90090'
p2264
sS'793'
p2265
S'71203.81900'
p2266
sS'792'
p2267
S'70945.71060'
p2268
sS'791'
p2269
S'70688.57300'
p2270
sS'790'
p2271
S'70432.40320'
p2272
sS'3050'
p2273
S'55947246.00000'
p2274
sS'1719'
p2275
S'1598987.20000'
p2276
sS'1718'
p2277
S'1594086.24000'
p2278
sS'2413'
p2279
S'11564805.10000'
p2280
sS'799'
p2281
S'72770.89910'
p2282
sS'798'
p2283
S'72507.75470'
p2284
sS'1270'
p2285
S'377486.21800'
p2286
sS'2412'
p2287
S'11534274.60000'
p2288
sS'1271'
p2289
S'378755.64500'
p2290
sS'2415'
p2291
S'11626089.50000'
p2292
sS'1272'
p2293
S'380029.76300'
p2294
sS'2414'
p2295
S'11595409.20000'
p2296
sS'1139'
p2297
S'241862.71400'
p2298
sS'1138'
p2299
S'241032.48900'
p2300
sS'2417'
p2301
S'11687672.10000'
p2302
sS'3051'
p2303
S'56077042.10000'
p2304
sS'1133'
p2305
S'236923.12600'
p2306
sS'1132'
p2307
S'236108.99300'
p2308
sS'1131'
p2309
S'235297.76100'
p2310
sS'1130'
p2311
S'234489.42200'
p2312
sS'1137'
p2313
S'240205.19900'
p2314
sS'1136'
p2315
S'239380.83900'
p2316
sS'1135'
p2317
S'238558.68600'
p2318
sS'1134'
p2319
S'237739.45000'
p2320
sS'2419'
p2321
S'11749553.30000'
p2322
sS'1276'
p2323
S'385165.64000'
p2324
sS'2418'
p2325
S'11718574.50000'
p2326
sS'1277'
p2327
S'386459.92700'
p2328
sS'2790'
p2329
S'30140003.20000'
p2330
sS'3018'
p2331
S'51936058.80000'
p2332
sS'2791'
p2333
S'30213699.50000'
p2334
sS'3012'
p2335
S'51213911.70000'
p2336
sS'2796'
p2337
S'30584666.90000'
p2338
sS'3010'
p2339
S'50975242.50000'
p2340
sS'2793'
p2341
S'30361590.40000'
p2342
sS'3016'
p2343
S'51694314.60000'
p2344
sS'3017'
p2345
S'51815055.70000'
p2346
sS'3014'
p2347
S'51453598.60000'
p2348
sS'2797'
p2349
S'30659359.50000'
p2350
sS'519'
p2351
S'25540.77500'
p2352
sS'518'
p2353
S'25440.91570'
p2354
sS'2149'
p2355
S'5640856.39000'
p2356
sS'1009'
p2357
S'153958.67000'
p2358
sS'1008'
p2359
S'153419.25900'
p2360
sS'1007'
p2361
S'152880.89200'
p2362
sS'1006'
p2363
S'152345.36000'
p2364
sS'1005'
p2365
S'151810.86500'
p2366
sS'1004'
p2367
S'151278.59700'
p2368
sS'515'
p2369
S'25143.32880'
p2370
sS'1002'
p2371
S'150218.93900'
p2372
sS'517'
p2373
S'25341.27930'
p2374
sS'1000'
p2375
S'149166.35400'
p2376
sS'623'
p2377
S'38034.23200'
p2378
sS'622'
p2379
S'37891.47880'
p2380
sS'1225'
p2381
S'324336.46000'
p2382
sS'620'
p2383
S'37607.22530'
p2384
sS'627'
p2385
S'38610.22410'
p2386
sS'626'
p2387
S'38465.30070'
p2388
sS'625'
p2389
S'38321.28740'
p2390
sS'624'
p2391
S'38177.30700'
p2392
sS'629'
p2393
S'38901.05230'
p2394
sS'628'
p2395
S'38755.47450'
p2396
sS'1229'
p2397
S'328757.50500'
p2398
sS'1228'
p2399
S'327647.57300'
p2400
sS'3279'
p2401
S'94004852.80000'
p2402
sS'1535'
p2403
S'899038.06600'
p2404
sS'2882'
p2405
S'37654615.20000'
p2406
sS'2883'
p2407
S'37744973.30000'
p2408
sS'2880'
p2409
S'37474496.70000'
p2410
sS'2881'
p2411
S'37564456.50000'
p2412
sS'2886'
p2413
S'38017233.50000'
p2414
sS'2887'
p2415
S'38108387.80000'
p2416
sS'2884'
p2417
S'37835527.90000'
p2418
sS'2885'
p2419
S'37926282.20000'
p2420
sS'2888'
p2421
S'38199739.50000'
p2422
sS'2889'
p2423
S'38291291.80000'
p2424
sS'2'
p2425
S'18.42053'
p2426
sS'3196'
p2427
S'78095717.40000'
p2428
sS'1286'
p2429
S'398293.77900'
p2430
sS'11'
p2431
S'86.28121'
p2432
sS'10'
p2433
S'77.08930'
p2434
sS'13'
p2435
S'105.67859'
p2436
sS'12'
p2437
S'95.81236'
p2438
sS'15'
p2439
S'126.40682'
p2440
sS'14'
p2441
S'115.87734'
p2442
sS'17'
p2443
S'148.45129'
p2444
sS'16'
p2445
S'137.26542'
p2446
sS'19'
p2447
S'171.79547'
p2448
sS'18'
p2449
S'159.96221'
p2450
sS'3118'
p2451
S'65427458.80000'
p2452
sS'3274'
p2453
S'92968526.60000'
p2454
sS'3275'
p2455
S'93174954.80000'
p2456
sS'2382'
p2457
S'10652103.70000'
p2458
sS'3272'
p2459
S'92556926.60000'
p2460
sS'3194'
p2461
S'77744713.30000'
p2462
sS'3270'
p2463
S'92146990.70000'
p2464
sS'3027'
p2465
S'53036751.50000'
p2466
sS'3271'
p2467
S'92351750.40000'
p2468
sS'3111'
p2469
S'64387867.50000'
p2470
sS'3193'
p2471
S'77569752.40000'
p2472
sS'2742'
p2473
S'26790214.40000'
p2474
sS'1534'
p2475
S'896174.67700'
p2476
sS'3278'
p2477
S'93796746.10000'
p2478
sS'3192'
p2479
S'77395150.80000'
p2480
sS'201'
p2481
S'5325.81718'
p2482
sS'200'
p2483
S'5286.10616'
p2484
sS'203'
p2485
S'5405.54231'
p2486
sS'202'
p2487
S'5365.62931'
p2488
sS'205'
p2489
S'5485.67002'
p2490
sS'204'
p2491
S'5445.55595'
p2492
sS'207'
p2493
S'5566.19849'
p2494
sS'206'
p2495
S'5525.88427'
p2496
sS'209'
p2497
S'5647.18240'
p2498
sS'208'
p2499
S'5606.66849'
p2500
sS'2745'
p2501
S'26989136.00000'
p2502
sS'3476'
p2503
S'144286683.00000'
p2504
sS'1573'
p2505
S'1014399.26000'
p2506
sS'3477'
p2507
S'144594989.00000'
p2508
sS'1572'
p2509
S'1011192.98000'
p2510
sS'3191'
p2511
S'77220908.00000'
p2512
sS'1571'
p2513
S'1007997.17000'
p2514
sS'3471'
p2515
S'142754130.00000'
p2516
sS'2239'
p2517
S'7238276.99000'
p2518
sS'2238'
p2519
S'7218443.51000'
p2520
sS'1570'
p2521
S'1004810.66000'
p2522
sS'3472'
p2523
S'143059447.00000'
p2524
sS'2231'
p2525
S'7080998.39000'
p2526
sS'1577'
p2527
S'1027315.50000'
p2528
sS'2233'
p2529
S'7120019.79000'
p2530
sS'2232'
p2531
S'7100484.52000'
p2532
sS'2235'
p2533
S'7159240.01000'
p2534
sS'2234'
p2535
S'7139604.26000'
p2536
sS'2237'
p2537
S'7198659.57000'
p2538
sS'1576'
p2539
S'1024071.81000'
p2540
sS'1575'
p2541
S'1020838.67000'
p2542
sS'3190'
p2543
S'77047027.00000'
p2544
sS'1574'
p2545
S'1017613.71000'
p2546
sS'2185'
p2547
S'6236113.31000'
p2548
sS'3498'
p2549
S'151209877.00000'
p2550
sS'3499'
p2551
S'151531652.00000'
p2552
sS'3496'
p2553
S'150568199.00000'
p2554
sS'3497'
p2555
S'150888729.00000'
p2556
sS'3494'
p2557
S'149929009.00000'
p2558
sS'2184'
p2559
S'6218824.56000'
p2560
sS'3492'
p2561
S'149292295.00000'
p2562
sS'3493'
p2563
S'149610340.00000'
p2564
sS'3490'
p2565
S'148658044.00000'
p2566
sS'3223'
p2567
S'82978132.20000'
p2568
sS'2095'
p2569
S'4845643.28000'
p2570
sS'2094'
p2571
S'4831946.11000'
p2572
sS'2097'
p2573
S'4873146.47000'
p2574
sS'2096'
p2575
S'4859377.93000'
p2576
sS'2091'
p2577
S'4791068.06000'
p2578
sS'2090'
p2579
S'4777513.04000'
p2580
sS'2093'
p2581
S'4818284.55000'
p2582
sS'2092'
p2583
S'4804658.55000'
p2584
sS'2099'
p2585
S'4900794.51000'
p2586
sS'2098'
p2587
S'4886952.59000'
p2588
sS'2525'
p2589
S'15494749.30000'
p2590
sS'2524'
p2591
S'15454804.90000'
p2592
sS'2527'
p2593
S'15574923.90000'
p2594
sS'2188'
p2595
S'6288245.43000'
p2596
sS'2521'
p2597
S'15335535.10000'
p2598
sS'2520'
p2599
S'15295967.40000'
p2600
sS'2523'
p2601
S'15414952.50000'
p2602
sS'2522'
p2603
S'15375196.70000'
p2604
sS'2529'
p2605
S'15655479.60000'
p2606
sS'2528'
p2607
S'15615154.30000'
p2608
sS'2709'
p2609
S'24689015.10000'
p2610
sS'2708'
p2611
S'24627768.20000'
p2612
sS'2705'
p2613
S'24444862.40000'
p2614
sS'2704'
p2615
S'24384168.90000'
p2616
sS'2707'
p2617
S'24566660.50000'
p2618
sS'2706'
p2619
S'24505692.00000'
p2620
sS'2701'
p2621
S'24202922.40000'
p2622
sS'2700'
p2623
S'24142782.50000'
p2624
sS'2703'
p2625
S'24323616.70000'
p2626
sS'2702'
p2627
S'24263200.40000'
p2628
sS'1829'
p2629
S'2232381.17000'
p2630
sS'1828'
p2631
S'2225696.72000'
p2632
sS'2951'
p2633
S'44375977.10000'
p2634
sS'1825'
p2635
S'2205758.02000'
p2636
sS'1824'
p2637
S'2199148.91000'
p2638
sS'1827'
p2639
S'2219032.63000'
p2640
sS'1826'
p2641
S'2212385.91000'
p2642
sS'1821'
p2643
S'2179429.63000'
p2644
sS'1820'
p2645
S'2172893.92000'
p2646
sS'1823'
p2647
S'2192557.09000'
p2648
sS'1822'
p2649
S'2185985.47000'
p2650
sS'928'
p2651
S'115641.56200'
p2652
sS'929'
p2653
S'116053.13000'
p2654
sS'2145'
p2655
S'5578056.73000'
p2656
sS'2144'
p2657
S'5562459.08000'
p2658
sS'2143'
p2659
S'5546901.47000'
p2660
sS'2142'
p2661
S'5531383.84000'
p2662
sS'2141'
p2663
S'5515904.27000'
p2664
sS'2140'
p2665
S'5500466.46000'
p2666
sS'920'
p2667
S'112397.12700'
p2668
sS'921'
p2669
S'112797.39400'
p2670
sS'922'
p2671
S'113199.51900'
p2672
sS'923'
p2673
S'113603.50800'
p2674
sS'924'
p2675
S'114008.31600'
p2676
sS'925'
p2677
S'114414.46900'
p2678
sS'926'
p2679
S'114821.97100'
p2680
sS'927'
p2681
S'115231.35300'
p2682
sS'2411'
p2683
S'11503820.10000'
p2684
sS'1920'
p2685
S'2924827.65000'
p2686
sS'1921'
p2687
S'2933436.52000'
p2688
sS'1922'
p2689
S'2942070.32000'
p2690
sS'1923'
p2691
S'2950727.49000'
p2692
sS'1924'
p2693
S'2959408.05000'
p2694
sS'1925'
p2695
S'2968113.65000'
p2696
sS'1926'
p2697
S'2976841.12000'
p2698
sS'1927'
p2699
S'2985593.69000'
p2700
sS'1928'
p2701
S'2994368.20000'
p2702
sS'1929'
p2703
S'3003167.89000'
p2704
sS'3069'
p2705
S'58460920.70000'
p2706
sS'3145'
p2707
S'69582641.10000'
p2708
sS'832'
p2709
S'81997.44320'
p2710
sS'833'
p2711
S'82293.43520'
p2712
sS'830'
p2713
S'81407.78030'
p2714
sS'831'
p2715
S'81702.07600'
p2716
sS'836'
p2717
S'83188.77990'
p2718
sS'837'
p2719
S'83489.09300'
p2720
sS'834'
p2721
S'82590.95300'
p2722
sS'835'
p2723
S'82889.55090'
p2724
sS'838'
p2725
S'83790.94690'
p2726
sS'839'
p2727
S'84093.43800'
p2728
sS'3478'
p2729
S'144903899.00000'
p2730
sS'3479'
p2731
S'145213409.00000'
p2732
sS'3'
p2733
S'23.71601'
p2734
sS'1986'
p2735
S'3546230.01000'
p2736
sS'3332'
p2737
S'105657140.00000'
p2738
sS'3199'
p2739
S'78624938.30000'
p2740
sS'3319'
p2741
S'102683047.00000'
p2742
sS'3318'
p2743
S'102457465.00000'
p2744
sS'2511'
p2745
S'14944048.90000'
p2746
sS'3311'
p2747
S'100891031.00000'
p2748
sS'3310'
p2749
S'100669048.00000'
p2750
sS'3313'
p2751
S'101336337.00000'
p2752
sS'3312'
p2753
S'101113462.00000'
p2754
sS'3315'
p2755
S'101783439.00000'
p2756
sS'1987'
p2757
S'3556520.86000'
p2758
sS'1532'
p2759
S'890474.05600'
p2760
sS'3316'
p2761
S'102007663.00000'
p2762
sS'784'
p2763
S'68913.50410'
p2764
sS'785'
p2765
S'69164.33170'
p2766
sS'786'
p2767
S'69416.11220'
p2768
sS'787'
p2769
S'69668.84830'
p2770
sS'780'
p2771
S'67918.03890'
p2772
sS'781'
p2773
S'68165.48730'
p2774
sS'782'
p2775
S'68413.87910'
p2776
sS'783'
p2777
S'68663.21720'
p2778
sS'1726'
p2779
S'1633688.35000'
p2780
sS'1727'
p2781
S'1638701.90000'
p2782
sS'1724'
p2783
S'1623703.03000'
p2784
sS'1725'
p2785
S'1628688.29000'
p2786
sS'788'
p2787
S'69922.54280'
p2788
sS'789'
p2789
S'70177.19850'
p2790
sS'1720'
p2791
S'1603902.82000'
p2792
sS'1721'
p2793
S'1608831.79000'
p2794
sS'3361'
p2795
S'112577083.00000'
p2796
sS'2355'
p2797
S'9911651.09000'
p2798
sS'3330'
p2799
S'105194527.00000'
p2800
sS'2439'
p2801
S'12385149.40000'
p2802
sS'60'
p2803
S'882.31146'
p2804
sS'61'
p2805
S'904.08464'
p2806
sS'62'
p2807
S'926.03564'
p2808
sS'63'
p2809
S'948.16295'
p2810
sS'64'
p2811
S'970.46509'
p2812
sS'65'
p2813
S'992.94064'
p2814
sS'66'
p2815
S'1015.58823'
p2816
sS'67'
p2817
S'1038.40650'
p2818
sS'68'
p2819
S'1061.39414'
p2820
sS'69'
p2821
S'1084.54988'
p2822
sS'3009'
p2823
S'50856293.50000'
p2824
sS'3008'
p2825
S'50737595.00000'
p2826
sS'1371'
p2827
S'528242.83500'
p2828
sS'1588'
p2829
S'1063634.87000'
p2830
sS'1589'
p2831
S'1066994.69000'
p2832
sS'1370'
p2833
S'526505.25100'
p2834
sS'1582'
p2835
S'1043678.70000'
p2836
sS'1583'
p2837
S'1046980.16000'
p2838
sS'1580'
p2839
S'1037104.17000'
p2840
sS'1581'
p2841
S'1040386.71000'
p2842
sS'1586'
p2843
S'1056942.73000'
p2844
sS'1373'
p2845
S'531734.92800'
p2846
sS'1584'
p2847
S'1050291.11000'
p2848
sS'1585'
p2849
S'1053612.75000'
p2850
sS'2433'
p2851
S'12191228.90000'
p2852
sS'1038'
p2853
S'170421.16900'
p2854
sS'1039'
p2855
S'171017.18400'
p2856
sS'3317'
p2857
S'102232337.00000'
p2858
sS'508'
p2859
S'24460.75230'
p2860
sS'509'
p2861
S'24557.33650'
p2862
sS'1032'
p2863
S'166882.53800'
p2864
sS'507'
p2865
S'24364.59610'
p2866
sS'1030'
p2867
S'165719.21500'
p2868
sS'505'
p2869
S'24173.13640'
p2870
sS'502'
p2871
S'23888.48620'
p2872
sS'503'
p2873
S'23982.94860'
p2874
sS'500'
p2875
S'23700.18900'
p2876
sS'501'
p2877
S'23794.02390'
p2878
sS'1212'
p2879
S'310354.05600'
p2880
sS'1213'
p2881
S'311408.47800'
p2882
sS'632'
p2883
S'39341.53150'
p2884
sS'633'
p2885
S'39489.31720'
p2886
sS'1216'
p2887
S'314593.86400'
p2888
sS'1217'
p2889
S'315662.79300'
p2890
sS'636'
p2891
S'39935.86980'
p2892
sS'637'
p2893
S'40085.59140'
p2894
sS'638'
p2895
S'40236.25130'
p2896
sS'639'
p2897
S'40386.94940'
p2898
sS'1218'
p2899
S'316735.16800'
p2900
sS'1219'
p2901
S'317810.19800'
p2902
sS'3024'
p2903
S'52667506.50000'
p2904
sS'2416'
p2905
S'11656843.80000'
p2906
sS'3335'
p2907
S'106354541.00000'
p2908
sS'465'
p2909
S'20600.41070'
p2910
sS'2899'
p2911
S'39217933.40000'
p2912
sS'1728'
p2913
S'1643730.29000'
p2914
sS'2895'
p2915
S'38844843.80000'
p2916
sS'2894'
p2917
S'38752077.80000'
p2918
sS'2897'
p2919
S'39030979.20000'
p2920
sS'1729'
p2921
S'1648772.20000'
p2922
sS'2891'
p2923
S'38475001.80000'
p2924
sS'2890'
p2925
S'38383047.80000'
p2926
sS'2893'
p2927
S'38659516.60000'
p2928
sS'2892'
p2929
S'38567160.00000'
p2930
sS'1106'
p2931
S'215858.41500'
p2932
sS'1107'
p2933
S'216606.05100'
p2934
sS'1104'
p2935
S'214371.38600'
p2936
sS'1105'
p2937
S'215113.52900'
p2938
sS'1102'
p2939
S'212893.93400'
p2940
sS'1103'
p2941
S'213631.29400'
p2942
sS'1100'
p2943
S'211426.01900'
p2944
sS'1101'
p2945
S'212158.61600'
p2946
sS'3334'
p2947
S'106121606.00000'
p2948
sS'1458'
p2949
S'701916.92800'
p2950
sS'1459'
p2951
S'704193.77700'
p2952
sS'1108'
p2953
S'217355.75200'
p2954
sS'1109'
p2955
S'218108.21400'
p2956
sS'1722'
p2957
S'1613774.13000'
p2958
sS'1723'
p2959
S'1618731.20000'
p2960
sS'1897'
p2961
S'2733140.29000'
p2962
sS'1891'
p2963
S'2685086.19000'
p2964
sS'2136'
p2965
S'5439112.91000'
p2966
sS'2137'
p2967
S'5454391.75000'
p2968
sS'2794'
p2969
S'30435782.60000'
p2970
sS'3070'
p2971
S'58596035.60000'
p2972
sS'2965'
p2973
S'45866954.80000'
p2974
sS'3071'
p2975
S'58731436.90000'
p2976
sS'216'
p2977
S'5933.96346'
p2978
sS'217'
p2979
S'5975.38816'
p2980
sS'214'
p2981
S'5851.52962'
p2982
sS'215'
p2983
S'5892.69711'
p2984
sS'212'
p2985
S'5769.49207'
p2986
sS'213'
p2987
S'5810.46121'
p2988
sS'210'
p2989
S'5687.85245'
p2990
sS'211'
p2991
S'5728.62240'
p2992
sS'1530'
p2993
S'884807.08500'
p2994
sS'218'
p2995
S'6016.85205'
p2996
sS'219'
p2997
S'6058.47469'
p2998
sS'3094'
p2999
S'61925694.70000'
p3000
sS'2138'
p3001
S'5469710.25000'
p3002
sS'2139'
p3003
S'5485068.47000'
p3004
sS'4'
p3005
S'29.89578'
p3006
sS'3489'
p3007
S'148341844.00000'
p3008
sS'3488'
p3009
S'148026255.00000'
p3010
sS'3481'
p3011
S'145834236.00000'
p3012
sS'3480'
p3013
S'145523520.00000'
p3014
sS'3284'
p3015
S'95051715.50000'
p3016
sS'3482'
p3017
S'146145557.00000'
p3018
sS'3485'
p3019
S'147083166.00000'
p3020
sS'2669'
p3021
S'22344999.00000'
p3022
sS'3487'
p3023
S'147711283.00000'
p3024
sS'3486'
p3025
S'147396917.00000'
p3026
sS'3074'
p3027
S'59139355.50000'
p3028
sS'2550'
p3029
S'16524719.30000'
p3030
sS'2551'
p3031
S'16567195.30000'
p3032
sS'2552'
p3033
S'16609771.30000'
p3034
sS'2553'
p3035
S'16652449.70000'
p3036
sS'2554'
p3037
S'16695228.20000'
p3038
sS'2555'
p3039
S'16738106.90000'
p3040
sS'2556'
p3041
S'16781086.00000'
p3042
sS'2557'
p3043
S'16824168.00000'
p3044
sS'2558'
p3045
S'16867350.60000'
p3046
sS'2559'
p3047
S'16910633.90000'
p3048
sS'3007'
p3049
S'50619149.90000'
p3050
sS'2396'
p3051
S'11055760.70000'
p3052
sS'2397'
p3053
S'11085123.30000'
p3054
sS'2394'
p3055
S'10997245.50000'
p3056
sS'2395'
p3057
S'11026468.10000'
p3058
sS'2392'
p3059
S'10939018.40000'
p3060
sS'2393'
p3061
S'10968097.10000'
p3062
sS'2390'
p3063
S'10881072.20000'
p3064
sS'2391'
p3065
S'10910009.40000'
p3066
sS'3001'
p3067
S'49913778.70000'
p3068
sS'2398'
p3069
S'11114560.40000'
p3070
sS'2399'
p3071
S'11144067.80000'
p3072
sS'2778'
p3073
S'29268389.80000'
p3074
sS'2779'
p3075
S'29340132.50000'
p3076
sS'3003'
p3077
S'50147897.70000'
p3078
sS'3282'
p3079
S'94631696.50000'
p3080
sS'2770'
p3081
S'28700210.30000'
p3082
sS'2771'
p3083
S'28770674.20000'
p3084
sS'2772'
p3085
S'28841298.70000'
p3086
sS'2773'
p3087
S'28912083.90000'
p3088
sS'2774'
p3089
S'28983024.70000'
p3090
sS'2775'
p3091
S'29054126.60000'
p3092
sS'2776'
p3093
S'29125387.00000'
p3094
sS'2777'
p3095
S'29196808.90000'
p3096
sS'3166'
p3097
S'72979632.60000'
p3098
sS'2751'
p3099
S'27391043.40000'
p3100
sS'2803'
p3101
S'31111031.60000'
p3102
sS'3164'
p3103
S'72649699.70000'
p3104
sS'1858'
p3105
S'2434500.17000'
p3106
sS'1859'
p3107
S'2441762.94000'
p3108
sS'3165'
p3109
S'72814494.80000'
p3110
sS'3281'
p3111
S'94422325.80000'
p3112
sS'1850'
p3113
S'2377109.63000'
p3114
sS'1851'
p3115
S'2384215.21000'
p3116
sS'1852'
p3117
S'2391338.82000'
p3118
sS'1853'
p3119
S'2398482.01000'
p3120
sS'1854'
p3121
S'2405646.31000'
p3122
sS'1855'
p3123
S'2412830.25000'
p3124
sS'1856'
p3125
S'2420033.85000'
p3126
sS'1857'
p3127
S'2427257.15000'
p3128
sS'2172'
p3129
S'6014781.66000'
p3130
sS'2173'
p3131
S'6031545.66000'
p3132
sS'2170'
p3133
S'5981380.29000'
p3134
sS'2171'
p3135
S'5998059.25000'
p3136
sS'919'
p3137
S'111997.67100'
p3138
sS'918'
p3139
S'111599.54400'
p3140
sS'2174'
p3141
S'6048355.15000'
p3142
sS'2175'
p3143
S'6065206.35000'
p3144
sS'915'
p3145
S'110413.63000'
p3146
sS'914'
p3147
S'110020.79100'
p3148
sS'917'
p3149
S'111202.74400'
p3150
sS'916'
p3151
S'110807.26800'
p3152
sS'911'
p3153
S'108850.66200'
p3154
sS'910'
p3155
S'108463.57500'
p3156
sS'913'
p3157
S'109629.26600'
p3158
sS'912'
p3159
S'109239.56800'
p3160
sS'2604'
p3161
S'18967295.80000'
p3162
sS'2605'
p3163
S'19015500.50000'
p3164
sS'2606'
p3165
S'19063819.30000'
p3166
sS'2607'
p3167
S'19112247.20000'
p3168
sS'2600'
p3169
S'18775597.20000'
p3170
sS'2601'
p3171
S'18823354.50000'
p3172
sS'2602'
p3173
S'18871222.90000'
p3174
sS'2603'
p3175
S'18919205.00000'
p3176
sS'2608'
p3177
S'19160789.50000'
p3178
sS'2609'
p3179
S'19209446.20000'
p3180
sS'1933'
p3181
S'3038607.86000'
p3182
sS'1932'
p3183
S'3029711.93000'
p3184
sS'1931'
p3185
S'3020839.71000'
p3186
sS'1930'
p3187
S'3011992.78000'
p3188
sS'1937'
p3189
S'3074432.63000'
p3190
sS'1936'
p3191
S'3065439.89000'
p3192
sS'1935'
p3193
S'3056471.00000'
p3194
sS'1934'
p3195
S'3047527.54000'
p3196
sS'3269'
p3197
S'91942647.20000'
p3198
sS'3268'
p3199
S'91738715.80000'
p3200
sS'1939'
p3201
S'3092491.43000'
p3202
sS'1938'
p3203
S'3083450.88000'
p3204
sS'3369'
p3205
S'114557510.00000'
p3206
sS'847'
p3207
S'86551.57290'
p3208
sS'846'
p3209
S'86240.71970'
p3210
sS'845'
p3211
S'85930.51890'
p3212
sS'844'
p3213
S'85621.88680'
p3214
sS'843'
p3215
S'85313.90290'
p3216
sS'842'
p3217
S'85007.02360'
p3218
sS'841'
p3219
S'84701.70190'
p3220
sS'840'
p3221
S'84397.02200'
p3222
sS'849'
p3223
S'87176.62600'
p3224
sS'848'
p3225
S'86863.54070'
p3226
sS'3364'
p3227
S'113316049.00000'
p3228
sS'2406'
p3229
S'11352644.80000'
p3230
sS'663'
p3231
S'44171.54330'
p3232
sS'1587'
p3233
S'1060284.62000'
p3234
sS'2407'
p3235
S'11382732.40000'
p3236
sS'1739'
p3237
S'1699998.26000'
p3238
sS'1738'
p3239
S'1694809.03000'
p3240
sS'1731'
p3241
S'1658900.74000'
p3242
sS'1730'
p3243
S'1653830.37000'
p3244
sS'1733'
p3245
S'1669087.71000'
p3246
sS'1732'
p3247
S'1663987.42000'
p3248
sS'662'
p3249
S'44007.41000'
p3250
sS'1734'
p3251
S'1674202.99000'
p3252
sS'1737'
p3253
S'1689636.28000'
p3254
sS'1736'
p3255
S'1684477.25000'
p3256
sS'2404'
p3257
S'11292686.80000'
p3258
sS'753'
p3259
S'61549.97690'
p3260
sS'752'
p3261
S'61325.59370'
p3262
sS'751'
p3263
S'61101.69990'
p3264
sS'750'
p3265
S'60878.67910'
p3266
sS'757'
p3267
S'62456.30410'
p3268
sS'756'
p3269
S'62228.39780'
p3270
sS'755'
p3271
S'62001.76390'
p3272
sS'754'
p3273
S'61775.62380'
p3274
sS'759'
p3275
S'62914.00030'
p3276
sS'758'
p3277
S'62684.70790'
p3278
sS'1595'
p3279
S'1087367.44000'
p3280
sS'506'
p3281
S'24268.65370'
p3282
sS'1597'
p3283
S'1094238.85000'
p3284
sS'1596'
p3285
S'1090798.29000'
p3286
sS'1591'
p3287
S'1073745.49000'
p3288
sS'1590'
p3289
S'1070365.29000'
p3290
sS'1593'
p3291
S'1080537.16000'
p3292
sS'1033'
p3293
S'167467.42400'
p3294
sS'2954'
p3295
S'44691688.10000'
p3296
sS'2955'
p3297
S'44797379.70000'
p3298
sS'2956'
p3299
S'44903302.10000'
p3300
sS'2957'
p3301
S'45009452.40000'
p3302
sS'1599'
p3303
S'1101150.34000'
p3304
sS'504'
p3305
S'24077.83130'
p3306
sS'2952'
p3307
S'44480987.00000'
p3308
sS'2953'
p3309
S'44586223.90000'
p3310
sS'1025'
p3311
S'162843.56100'
p3312
sS'1024'
p3313
S'162274.31100'
p3314
sS'1027'
p3315
S'163987.80400'
p3316
sS'1031'
p3317
S'166300.01000'
p3318
sS'1021'
p3319
S'160577.39000'
p3320
sS'1020'
p3321
S'160015.54900'
p3322
sS'1023'
p3323
S'161706.76700'
p3324
sS'1022'
p3325
S'161140.92400'
p3326
sS'1036'
p3327
S'169233.79000'
p3328
sS'1029'
p3329
S'165140.14800'
p3330
sS'1028'
p3331
S'164562.80700'
p3332
sS'1037'
p3333
S'169826.28800'
p3334
sS'1034'
p3335
S'168054.05100'
p3336
sS'1035'
p3337
S'168643.04600'
p3338
sS'605'
p3339
S'35538.95490'
p3340
sS'604'
p3341
S'35404.93760'
p3342
sS'607'
p3343
S'35808.45460'
p3344
sS'606'
p3345
S'35673.55280'
p3346
sS'601'
p3347
S'35005.24720'
p3348
sS'600'
p3349
S'34872.98390'
p3350
sS'603'
p3351
S'35271.22240'
p3352
sS'602'
p3353
S'35138.08470'
p3354
sS'1205'
p3355
S'303063.46900'
p3356
sS'1204'
p3357
S'302035.35200'
p3358
sS'1207'
p3359
S'305129.80100'
p3360
sS'1206'
p3361
S'304094.95000'
p3362
sS'609'
p3363
S'36080.01220'
p3364
sS'1200'
p3365
S'297955.59500'
p3366
sS'1203'
p3367
S'301009.80800'
p3368
sS'1202'
p3369
S'299988.39600'
p3370
sS'1211'
p3371
S'309302.25200'
p3372
sS'634'
p3373
S'39637.73370'
p3374
sS'635'
p3375
S'39786.48470'
p3376
sS'3108'
p3377
S'63946969.20000'
p3378
sS'1214'
p3379
S'312467.11100'
p3380
sS'3104'
p3381
S'63363394.60000'
p3382
sS'3105'
p3383
S'63508828.80000'
p3384
sS'3106'
p3385
S'63654569.70000'
p3386
sS'1215'
p3387
S'313529.16900'
p3388
sS'3100'
p3389
S'62784691.50000'
p3390
sS'3101'
p3391
S'62928912.10000'
p3392
sS'3102'
p3393
S'63073438.20000'
p3394
sS'3103'
p3395
S'63218263.40000'
p3396
sS'1111'
p3397
S'219620.05900'
p3398
sS'1110'
p3399
S'218862.75100'
p3400
sS'1113'
p3401
S'221141.62600'
p3402
sS'1112'
p3403
S'220379.45100'
p3404
sS'1115'
p3405
S'222673.65400'
p3406
sS'1114'
p3407
S'221906.59100'
p3408
sS'1117'
p3409
S'224215.48800'
p3410
sS'464'
p3411
S'20516.95700'
p3412
sS'1119'
p3413
S'225767.87200'
p3414
sS'1118'
p3415
S'224990.27100'
p3416
sS'467'
p3417
S'20768.05400'
p3418
sS'1449'
p3419
S'681730.73000'
p3420
sS'1448'
p3421
S'679521.53700'
p3422
sS'466'
p3423
S'20684.04700'
p3424
sS'1357'
p3425
S'504396.66200'
p3426
sS'460'
p3427
S'20186.06840'
p3428
sS'1355'
p3429
S'501073.26600'
p3430
sS'489'
p3431
S'22686.92390'
p3432
sS'488'
p3433
S'22596.56100'
p3434
sS'487'
p3435
S'22506.59840'
p3436
sS'486'
p3437
S'22417.03410'
p3438
sS'485'
p3439
S'22327.66690'
p3440
sS'1354'
p3441
S'499419.78800'
p3442
sS'483'
p3443
S'22149.72130'
p3444
sS'482'
p3445
S'22061.14150'
p3446
sS'481'
p3447
S'21972.95380'
p3448
sS'480'
p3449
S'21884.96010'
p3450
sS'3299'
p3451
S'98256502.30000'
p3452
sS'3005'
p3453
S'50383018.70000'
p3454
sS'3283'
p3455
S'94841495.40000'
p3456
sS'2898'
p3457
S'39124354.90000'
p3458
sS'3004'
p3459
S'50265332.00000'
p3460
sS'2896'
p3461
S'38937808.80000'
p3462
sS'199'
p3463
S'5246.54889'
p3464
sS'198'
p3465
S'5207.04037'
p3466
sS'195'
p3467
S'5089.22828'
p3468
sS'194'
p3469
S'5050.17808'
p3470
sS'197'
p3471
S'5167.68529'
p3472
sS'196'
p3473
S'5128.38021'
p3474
sS'191'
p3475
S'4933.59107'
p3476
sS'190'
p3477
S'4894.99963'
p3478
sS'193'
p3479
S'5011.17979'
p3480
sS'192'
p3481
S'4972.33419'
p3482
sS'2408'
p3483
S'11412893.10000'
p3484
sS'2543'
p3485
S'16230168.70000'
p3486
sS'1454'
p3487
S'692876.56500'
p3488
sS'2541'
p3489
S'16146902.50000'
p3490
sS'2540'
p3491
S'16105416.30000'
p3492
sS'2547'
p3493
S'16397886.70000'
p3494
sS'2546'
p3495
S'16355809.00000'
p3496
sS'2545'
p3497
S'16313830.60000'
p3498
sS'1455'
p3499
S'695125.99800'
p3500
sS'3006'
p3501
S'50500957.90000'
p3502
sS'2549'
p3503
S'16482343.00000'
p3504
sS'2548'
p3505
S'16440066.30000'
p3506
sS'1456'
p3507
S'697383.04900'
p3508
sS'2381'
p3509
S'10623797.50000'
p3510
sS'2380'
p3511
S'10595560.00000'
p3512
sS'2383'
p3513
S'10680480.90000'
p3514
sS'1457'
p3515
S'699646.68900'
p3516
sS'2385'
p3517
S'10737444.20000'
p3518
sS'2384'
p3519
S'10708927.00000'
p3520
sS'2387'
p3521
S'10794685.90000'
p3522
sS'2386'
p3523
S'10766028.30000'
p3524
sS'2389'
p3525
S'10852206.70000'
p3526
sS'1450'
p3527
S'683946.42700'
p3528
sS'1451'
p3529
S'686168.63900'
p3530
sS'2769'
p3531
S'28629901.40000'
p3532
sS'2768'
p3533
S'28559752.70000'
p3534
sS'1452'
p3535
S'688398.41800'
p3536
sS'3259'
p3537
S'89921833.20000'
p3538
sS'2763'
p3539
S'28211360.40000'
p3540
sS'2762'
p3541
S'28142150.30000'
p3542
sS'2761'
p3543
S'28073096.60000'
p3544
sS'1453'
p3545
S'690633.69600'
p3546
sS'2767'
p3547
S'28489758.60000'
p3548
sS'2766'
p3549
S'28419924.40000'
p3550
sS'2765'
p3551
S'28350247.20000'
p3552
sS'2764'
p3553
S'28280724.10000'
p3554
sS'1949'
p3555
S'3184270.72000'
p3556
sS'2007'
p3557
S'3768238.53000'
p3558
sS'902'
p3559
S'105411.91300'
p3560
sS'903'
p3561
S'105788.68100'
p3562
sS'900'
p3563
S'104662.20200'
p3564
sS'901'
p3565
S'105036.42100'
p3566
sS'906'
p3567
S'106927.18000'
p3568
sS'907'
p3569
S'107309.59300'
p3570
sS'904'
p3571
S'106167.23600'
p3572
sS'905'
p3573
S'106546.56500'
p3574
sS'1843'
p3575
S'2327927.42000'
p3576
sS'1511'
p3577
S'832631.89100'
p3578
sS'908'
p3579
S'107692.78700'
p3580
sS'909'
p3581
S'108077.27600'
p3582
sS'1847'
p3583
S'2355914.40000'
p3584
sS'1846'
p3585
S'2348888.21000'
p3586
sS'1845'
p3587
S'2341881.43000'
p3588
sS'1844'
p3589
S'2334894.01000'
p3590
sS'3250'
p3591
S'88137867.40000'
p3592
sS'2169'
p3593
S'5964744.73000'
p3594
sS'2168'
p3595
S'5948152.50000'
p3596
sS'3251'
p3597
S'88334479.10000'
p3598
sS'2165'
p3599
S'5898625.72000'
p3600
sS'2164'
p3601
S'5882202.45000'
p3602
sS'2167'
p3603
S'5931601.65000'
p3604
sS'2166'
p3605
S'5915092.10000'
p3606
sS'2161'
p3607
S'5833184.99000'
p3608
sS'2160'
p3609
S'5816929.76000'
p3610
sS'2163'
p3611
S'5865820.32000'
p3612
sS'2162'
p3613
S'5849481.19000'
p3614
sS'2617'
p3615
S'19602788.10000'
p3616
sS'2616'
p3617
S'19553221.20000'
p3618
sS'2615'
p3619
S'19503767.10000'
p3620
sS'2614'
p3621
S'19454428.50000'
p3622
sS'2613'
p3623
S'19405202.60000'
p3624
sS'2612'
p3625
S'19356091.80000'
p3626
sS'2611'
p3627
S'19307096.00000'
p3628
sS'2610'
p3629
S'19258215.00000'
p3630
sS'3254'
p3631
S'88926711.00000'
p3632
sS'2619'
p3633
S'19702271.80000'
p3634
sS'1947'
p3635
S'3165715.32000'
p3636
sS'3298'
p3637
S'98039819.20000'
p3638
sS'3256'
p3639
S'89323547.60000'
p3640
sS'1908'
p3641
S'2823314.22000'
p3642
sS'1909'
p3643
S'2831647.37000'
p3644
sS'1906'
p3645
S'2806716.55000'
p3646
sS'1907'
p3647
S'2815003.96000'
p3648
sS'1904'
p3649
S'2790210.17000'
p3650
sS'1905'
p3651
S'2798451.97000'
p3652
sS'1902'
p3653
S'2773793.23000'
p3654
sS'1903'
p3655
S'2781989.56000'
p3656
sS'1900'
p3657
S'2757465.48000'
p3658
sS'1901'
p3659
S'2765618.03000'
p3660
sS'854'
p3661
S'88758.91680'
p3662
sS'855'
p3663
S'89078.30090'
p3664
sS'856'
p3665
S'89399.28960'
p3666
sS'857'
p3667
S'89720.95020'
p3668
sS'850'
p3669
S'87490.83160'
p3670
sS'851'
p3671
S'87806.16060'
p3672
sS'852'
p3673
S'88122.61580'
p3674
sS'853'
p3675
S'88440.20020'
p3676
sS'3458'
p3677
S'138838729.00000'
p3678
sS'3459'
p3679
S'139136397.00000'
p3680
sS'858'
p3681
S'90044.22300'
p3682
sS'859'
p3683
S'90368.17180'
p3684
sS'3293'
p3685
S'96962933.90000'
p3686
sS'6'
p3687
S'43.93565'
p3688
sS'2463'
p3689
S'13189516.30000'
p3690
sS'740'
p3691
S'58691.00480'
p3692
sS'741'
p3693
S'58906.18690'
p3694
sS'742'
p3695
S'59122.59590'
p3696
sS'743'
p3697
S'59339.48010'
p3698
sS'744'
p3699
S'59556.83990'
p3700
sS'745'
p3701
S'59775.43530'
p3702
sS'746'
p3703
S'59994.51000'
p3704
sS'747'
p3705
S'60214.44580'
p3706
sS'748'
p3707
S'60435.24540'
p3708
sS'749'
p3709
S'60656.52850'
p3710
sS'2912'
p3711
S'40453248.40000'
p3712
sS'3063'
p3713
S'57656193.20000'
p3714
sS'3062'
p3715
S'57523061.90000'
p3716
sS'3061'
p3717
S'57390211.40000'
p3718
sS'1798'
p3719
S'2033624.04000'
p3720
sS'3067'
p3721
S'58191545.60000'
p3722
sS'3066'
p3723
S'58057281.60000'
p3724
sS'2949'
p3725
S'44166640.40000'
p3726
sS'2948'
p3727
S'44062310.10000'
p3728
sS'2947'
p3729
S'43958205.80000'
p3730
sS'2946'
p3731
S'43854324.30000'
p3732
sS'2945'
p3733
S'43750671.40000'
p3734
sS'2944'
p3735
S'43647240.90000'
p3736
sS'2943'
p3737
S'43544032.40000'
p3738
sS'2942'
p3739
S'43441048.70000'
p3740
sS'2941'
p3741
S'43338286.70000'
p3742
sS'2940'
p3743
S'43235749.10000'
p3744
sS'1050'
p3745
S'177712.80100'
p3746
sS'1051'
p3747
S'178334.06600'
p3748
sS'1052'
p3749
S'178957.14700'
p3750
sS'1053'
p3751
S'179582.04700'
p3752
sS'1054'
p3753
S'180209.41200'
p3754
sS'1055'
p3755
S'180838.60400'
p3756
sS'1056'
p3757
S'181469.62800'
p3758
sS'1057'
p3759
S'182103.13100'
p3760
sS'1058'
p3761
S'182739.11900'
p3762
sS'1059'
p3763
S'183376.30700'
p3764
sS'2917'
p3765
S'40937774.70000'
p3766
sS'1696'
p3767
S'1489743.18000'
p3768
sS'1697'
p3769
S'1494344.49000'
p3770
sS'1694'
p3771
S'1480580.36000'
p3772
sS'1695'
p3773
S'1485154.71000'
p3774
sS'1692'
p3775
S'1471470.01000'
p3776
sS'1693'
p3777
S'1476018.80000'
p3778
sS'1690'
p3779
S'1462410.66000'
p3780
sS'1691'
p3781
S'1466933.97000'
p3782
sS'2595'
p3783
S'18538473.70000'
p3784
sS'1791'
p3785
S'1991079.80000'
p3786
sS'1698'
p3787
S'1498959.96000'
p3788
sS'1699'
p3789
S'1503586.99000'
p3790
sS'1278'
p3791
S'387758.10000'
p3792
sS'1279'
p3793
S'389061.02600'
p3794
sS'618'
p3795
S'37325.40050'
p3796
sS'619'
p3797
S'37466.01050'
p3798
sS'612'
p3799
S'36490.92080'
p3800
sS'613'
p3801
S'36628.79220'
p3802
sS'610'
p3803
S'36216.39150'
p3804
sS'611'
p3805
S'36353.36030'
p3806
sS'616'
p3807
S'37045.12970'
p3808
sS'617'
p3809
S'37185.10700'
p3810
sS'614'
p3811
S'36766.97460'
p3812
sS'615'
p3813
S'36905.75300'
p3814
sS'1795'
p3815
S'2015288.64000'
p3816
sS'1794'
p3817
S'2009209.92000'
p3818
sS'3333'
p3819
S'105889139.00000'
p3820
sS'3119'
p3821
S'65577220.50000'
p3822
sS'1491'
p3823
S'780833.15200'
p3824
sS'3117'
p3825
S'65278014.50000'
p3826
sS'3116'
p3827
S'65128880.40000'
p3828
sS'3115'
p3829
S'64980056.40000'
p3830
sS'3114'
p3831
S'64831545.40000'
p3832
sS'3113'
p3833
S'64683343.80000'
p3834
sS'3112'
p3835
S'64535451.20000'
p3836
sS'2469'
p3837
S'13397970.80000'
p3838
sS'3110'
p3839
S'64240595.50000'
p3840
sS'1472'
p3841
S'734435.73300'
p3842
sS'1473'
p3843
S'736811.69100'
p3844
sS'1470'
p3845
S'729705.21200'
p3846
sS'1471'
p3847
S'732066.55700'
p3848
sS'1476'
p3849
S'743983.57600'
p3850
sS'1477'
p3851
S'746388.91800'
p3852
sS'1474'
p3853
S'739195.50800'
p3854
sS'1475'
p3855
S'741586.13200'
p3856
sS'3337'
p3857
S'106821807.00000'
p3858
sS'1478'
p3859
S'748801.10500'
p3860
sS'1479'
p3861
S'751220.14800'
p3862
sS'3336'
p3863
S'106587941.00000'
p3864
sS'1304'
p3865
S'422996.58100'
p3866
sS'1305'
p3867
S'424410.51100'
p3868
sS'1306'
p3869
S'425828.55000'
p3870
sS'1307'
p3871
S'427251.59300'
p3872
sS'1300'
p3873
S'417385.32300'
p3874
sS'1301'
p3875
S'418781.13300'
p3876
sS'1302'
p3877
S'420181.90000'
p3878
sS'1303'
p3879
S'421586.75200'
p3880
sS'1497'
p3881
S'796046.62100'
p3882
sS'1308'
p3883
S'428678.76200'
p3884
sS'1309'
p3885
S'430110.95300'
p3886
sS'3308'
p3887
S'100226423.00000'
p3888
sS'498'
p3889
S'23513.14200'
p3890
sS'499'
p3891
S'23606.56170'
p3892
sS'3280'
p3893
S'94213379.20000'
p3894
sS'494'
p3895
S'23142.76420'
p3896
sS'495'
p3897
S'23234.94820'
p3898
sS'496'
p3899
S'23327.33660'
p3900
sS'497'
p3901
S'23420.13630'
p3902
sS'490'
p3903
S'22777.48670'
p3904
sS'491'
p3905
S'22868.45260'
p3906
sS'492'
p3907
S'22959.61990'
p3908
sS'493'
p3909
S'23050.98880'
p3910
sS'24'
p3911
S'235.67032'
p3912
sS'25'
p3913
S'249.35670'
p3914
sS'26'
p3915
S'263.33570'
p3916
sS'27'
p3917
S'277.60229'
p3918
sS'20'
p3919
S'183.94788'
p3920
sS'21'
p3921
S'196.41578'
p3922
sS'22'
p3923
S'209.19512'
p3924
sS'23'
p3925
S'222.28151'
p3926
sS'2593'
p3927
S'18444395.90000'
p3928
sS'28'
p3929
S'292.15140'
p3930
sS'29'
p3931
S'306.97801'
p3932
sS'3262'
p3933
S'90523775.00000'
p3934
sS'2599'
p3935
S'18727950.70000'
p3936
sS'1703'
p3937
S'1522232.20000'
p3938
sS'3265'
p3939
S'91129397.80000'
p3940
sS'3224'
p3941
S'83164204.60000'
p3942
sS'3264'
p3943
S'90927111.10000'
p3944
sS'1875'
p3945
S'2560745.35000'
p3946
sS'1709'
p3947
S'1550604.41000'
p3948
sS'3267'
p3949
S'91535196.20000'
p3950
sS'3266'
p3951
S'91332091.50000'
p3952
sS'7'
p3953
S'51.64443'
p3954
sS'1879'
p3955
S'2591319.83000'
p3956
sS'2288'
p3957
S'8273989.46000'
p3958
sS'2289'
p3959
S'8296480.79000'
p3960
sS'2050'
p3961
S'4263479.24000'
p3962
sS'2280'
p3963
S'8096071.52000'
p3964
sS'2281'
p3965
S'8118116.71000'
p3966
sS'2282'
p3967
S'8140218.45000'
p3968
sS'2283'
p3969
S'8162374.74000'
p3970
sS'2284'
p3971
S'8184585.67000'
p3972
sS'2285'
p3973
S'8206853.36000'
p3974
sS'2286'
p3975
S'8229175.81000'
p3976
sS'2287'
p3977
S'8251555.18000'
p3978
sS'972'
p3979
S'135152.09400'
p3980
sS'2578'
p3981
S'17752653.70000'
p3982
sS'2579'
p3983
S'17798018.40000'
p3984
sS'2576'
p3985
S'17662243.40000'
p3986
sS'2577'
p3987
S'17707394.50000'
p3988
sS'2574'
p3989
S'17572254.50000'
p3990
sS'2056'
p3991
S'4337176.92000'
p3992
sS'2572'
p3993
S'17482686.00000'
p3994
sS'2573'
p3995
S'17527416.50000'
p3996
sS'2570'
p3997
S'17393537.10000'
p3998
sS'2571'
p3999
S'17438060.40000'
p4000
sS'2378'
p4001
S'10539290.80000'
p4002
sS'2379'
p4003
S'10567391.20000'
p4004
sS'2374'
p4005
S'10427575.20000'
p4006
sS'2375'
p4007
S'10455402.20000'
p4008
sS'2376'
p4009
S'10483295.30000'
p4010
sS'2377'
p4011
S'10511258.90000'
p4012
sS'2370'
p4013
S'10316949.10000'
p4014
sS'2371'
p4015
S'10344504.30000'
p4016
sS'2372'
p4017
S'10372127.40000'
p4018
sS'2373'
p4019
S'10399816.20000'
p4020
sS'2594'
p4021
S'18491379.70000'
p4022
sS'1087'
p4023
S'202117.44300'
p4024
sS'2596'
p4025
S'18585677.90000'
p4026
sS'2597'
p4027
S'18632992.40000'
p4028
sS'2590'
p4029
S'18304098.80000'
p4030
sS'2591'
p4031
S'18350755.60000'
p4032
sS'2592'
p4033
S'18397522.00000'
p4034
sS'1086'
p4035
S'201417.62000'
p4036
sS'2598'
p4037
S'18680415.00000'
p4038
sS'1085'
p4039
S'200720.43500'
p4040
sS'1876'
p4041
S'2568357.72000'
p4042
sS'1877'
p4043
S'2575991.92000'
p4044
sS'1874'
p4045
S'2553154.79000'
p4046
sS'1084'
p4047
S'200025.21400'
p4048
sS'1872'
p4049
S'2538035.88000'
p4050
sS'1873'
p4051
S'2545584.46000'
p4052
sS'1870'
p4053
S'2522999.21000'
p4054
sS'1871'
p4055
S'2530505.94000'
p4056
sS'1083'
p4057
S'199332.62000'
p4058
sS'1878'
p4059
S'2583644.93000'
p4060
sS'1082'
p4061
S'198641.98100'
p4062
sS'977'
p4063
S'137558.28500'
p4064
sS'976'
p4065
S'137073.66500'
p4066
sS'975'
p4067
S'136591.13900'
p4068
sS'974'
p4069
S'136109.56300'
p4070
sS'973'
p4071
S'135630.07200'
p4072
sS'1081'
p4073
S'197953.95800'
p4074
sS'971'
p4075
S'134675.62400'
p4076
sS'970'
p4077
S'134200.66000'
p4078
sS'1080'
p4079
S'197267.88100'
p4080
sS'979'
p4081
S'138532.68100'
p4082
sS'978'
p4083
S'138045.00300'
p4084
sS'182'
p4085
S'4589.74025'
p4086
sS'183'
p4087
S'4627.50475'
p4088
sS'180'
p4089
S'4514.47939'
p4090
sS'181'
p4091
S'4552.03456'
p4092
sS'186'
p4093
S'4741.51634'
p4094
sS'187'
p4095
S'4779.69624'
p4096
sS'184'
p4097
S'4665.37332'
p4098
sS'185'
p4099
S'4703.39269'
p4100
sS'2110'
p4101
S'5055458.79000'
p4102
sS'2111'
p4103
S'5069739.78000'
p4104
sS'188'
p4105
S'4818.02730'
p4106
sS'189'
p4107
S'4856.46183'
p4108
sS'2114'
p4109
S'5112807.19000'
p4110
sS'2115'
p4111
S'5127239.82000'
p4112
sS'2116'
p4113
S'5141707.27000'
p4114
sS'1559'
p4115
S'970375.00900'
p4116
sS'2622'
p4117
S'19852368.20000'
p4118
sS'2623'
p4119
S'19902631.00000'
p4120
sS'2620'
p4121
S'19752188.60000'
p4122
sS'2621'
p4123
S'19802219.00000'
p4124
sS'2626'
p4125
S'20054124.10000'
p4126
sS'2627'
p4127
S'20104856.20000'
p4128
sS'2624'
p4129
S'19953010.40000'
p4130
sS'2625'
p4131
S'20003508.90000'
p4132
sS'2628'
p4133
S'20155705.20000'
p4134
sS'2629'
p4135
S'20206674.00000'
p4136
sS'1919'
p4137
S'2916240.48000'
p4138
sS'1918'
p4139
S'2907676.57000'
p4140
sS'1464'
p4141
S'715684.96200'
p4142
sS'3289'
p4143
S'96109212.10000'
p4144
sS'3288'
p4145
S'95896857.50000'
p4146
sS'1911'
p4147
S'2848382.47000'
p4148
sS'1910'
p4149
S'2840003.44000'
p4150
sS'1913'
p4151
S'2865207.96000'
p4152
sS'1912'
p4153
S'2856782.91000'
p4154
sS'1915'
p4155
S'2882125.67000'
p4156
sS'1914'
p4157
S'2873656.06000'
p4158
sS'1917'
p4159
S'2899135.89000'
p4160
sS'1916'
p4161
S'2890619.99000'
p4162
sS'869'
p4163
S'93671.29540'
p4164
sS'868'
p4165
S'93336.21030'
p4166
sS'2113'
p4167
S'5098414.84000'
p4168
sS'3449'
p4169
S'136185738.00000'
p4170
sS'3448'
p4171
S'135893834.00000'
p4172
sS'3141'
p4173
S'68952218.90000'
p4174
sS'861'
p4175
S'91019.98920'
p4176
sS'860'
p4177
S'90693.26880'
p4178
sS'863'
p4179
S'91675.95210'
p4180
sS'862'
p4181
S'91347.39220'
p4182
sS'865'
p4183
S'92336.55470'
p4184
sS'864'
p4185
S'92005.67190'
p4186
sS'867'
p4187
S'93001.82100'
p4188
sS'866'
p4189
S'92668.60340'
p4190
sS'2024'
p4191
S'3957300.54000'
p4192
sS'2025'
p4193
S'3968689.72000'
p4194
sS'2026'
p4195
S'3980109.57000'
p4196
sS'2027'
p4197
S'3991560.12000'
p4198
sS'2020'
p4199
S'3912040.99000'
p4200
sS'2021'
p4201
S'3923311.38000'
p4202
sS'2022'
p4203
S'3934610.55000'
p4204
sS'2023'
p4205
S'3945940.26000'
p4206
sS'3144'
p4207
S'69424541.60000'
p4208
sS'2117'
p4209
S'5156213.27000'
p4210
sS'2028'
p4211
S'4003041.42000'
p4212
sS'2029'
p4213
S'4014553.51000'
p4214
sS'2758'
p4215
S'27866863.20000'
p4216
sS'2759'
p4217
S'27935454.60000'
p4218
sS'883'
p4219
S'98490.77260'
p4220
sS'882'
p4221
S'98138.94410'
p4222
sS'881'
p4223
S'97787.84150'
p4224
sS'880'
p4225
S'97438.44090'
p4226
sS'887'
p4227
S'99910.79140'
p4228
sS'886'
p4229
S'99553.57850'
p4230
sS'885'
p4231
S'99198.08680'
p4232
sS'884'
p4233
S'98843.81920'
p4234
sS'889'
p4235
S'100627.92400'
p4236
sS'888'
p4237
S'100268.74100'
p4238
sS'3148'
p4239
S'70058909.90000'
p4240
sS'3149'
p4241
S'70218325.10000'
p4242
sS'775'
p4243
S'66693.23930'
p4244
sS'774'
p4245
S'66450.99450'
p4246
sS'777'
p4247
S'67180.92200'
p4248
sS'776'
p4249
S'66936.81660'
p4250
sS'771'
p4251
S'65728.60390'
p4252
sS'770'
p4253
S'65489.64900'
p4254
sS'773'
p4255
S'66209.27390'
p4256
sS'772'
p4257
S'65968.47800'
p4258
sS'779'
p4259
S'67671.53120'
p4260
sS'778'
p4261
S'67425.55580'
p4262
sS'77'
p4263
S'1275.70410'
p4264
sS'76'
p4265
S'1251.24596'
p4266
sS'75'
p4267
S'1226.94675'
p4268
sS'74'
p4269
S'1202.80752'
p4270
sS'73'
p4271
S'1178.82937'
p4272
sS'72'
p4273
S'1155.01338'
p4274
sS'71'
p4275
S'1131.36070'
p4276
sS'70'
p4277
S'1107.87247'
p4278
sS'2972'
p4279
S'46629502.00000'
p4280
sS'2973'
p4281
S'46739378.40000'
p4282
sS'2970'
p4283
S'46410456.50000'
p4284
sS'2971'
p4285
S'46519863.50000'
p4286
sS'2976'
p4287
S'47070432.10000'
p4288
sS'2977'
p4289
S'47181259.90000'
p4290
sS'79'
p4291
S'1325.09308'
p4292
sS'78'
p4293
S'1300.32015'
p4294
sS'1043'
p4295
S'173423.96000'
p4296
sS'1042'
p4297
S'172818.97400'
p4298
sS'1041'
p4299
S'172216.39500'
p4300
sS'1040'
p4301
S'171616.21900'
p4302
sS'1047'
p4303
S'175862.40400'
p4304
sS'1046'
p4305
S'175249.63100'
p4306
sS'1045'
p4307
S'174639.28500'
p4308
sS'1044'
p4309
S'174030.73000'
p4310
sS'1049'
p4311
S'177093.98400'
p4312
sS'1048'
p4313
S'176477.61000'
p4314
sS'1681'
p4315
S'1422287.19000'
p4316
sS'1680'
p4317
S'1417892.63000'
p4318
sS'1683'
p4319
S'1431113.89000'
p4320
sS'1682'
p4321
S'1426694.27000'
p4322
sS'1685'
p4323
S'1439990.84000'
p4324
sS'1684'
p4325
S'1435546.07000'
p4326
sS'1687'
p4327
S'1448920.81000'
p4328
sS'1686'
p4329
S'1444449.51000'
p4330
sS'1689'
p4331
S'1457901.36000'
p4332
sS'1688'
p4333
S'1453404.76000'
p4334
sS'3025'
p4335
S'52790326.00000'
p4336
sS'1269'
p4337
S'376220.62200'
p4338
sS'1268'
p4339
S'374958.85000'
p4340
sS'3341'
p4341
S'107761967.00000'
p4342
sS'669'
p4343
S'45168.28220'
p4344
sS'668'
p4345
S'45000.63750'
p4346
sS'667'
p4347
S'44833.68970'
p4348
sS'1262'
p4349
S'367471.49500'
p4350
sS'665'
p4351
S'44501.55470'
p4352
sS'664'
p4353
S'44336.36410'
p4354
sS'1267'
p4355
S'373700.89600'
p4356
sS'1266'
p4357
S'372447.59700'
p4358
sS'1265'
p4359
S'371197.25400'
p4360
sS'1264'
p4361
S'369951.55100'
p4362
sS'3287'
p4363
S'95684929.90000'
p4364
sS'3021'
p4365
S'52300611.30000'
p4366
sS'3286'
p4367
S'95473432.40000'
p4368
sS'3095'
p4369
S'62068109.10000'
p4370
sS'3020'
p4371
S'52178836.30000'
p4372
sS'3285'
p4373
S'95262361.10000'
p4374
sS'3128'
p4375
S'66939215.80000'
p4376
sS'3129'
p4377
S'67092134.40000'
p4378
sS'3122'
p4379
S'66028375.80000'
p4380
sS'3123'
p4381
S'66179393.10000'
p4382
sS'3120'
p4383
S'65727289.80000'
p4384
sS'3121'
p4385
S'65877677.00000'
p4386
sS'3126'
p4387
S'66634336.20000'
p4388
sS'3127'
p4389
S'66786617.60000'
p4390
sS'3124'
p4391
S'66330722.70000'
p4392
sS'3125'
p4393
S'66482371.40000'
p4394
sS'1469'
p4395
S'727350.62400'
p4396
sS'1468'
p4397
S'725003.84000'
p4398
sS'1465'
p4399
S'718003.83400'
p4400
sS'1018'
p4401
S'158897.54100'
p4402
sS'1467'
p4403
S'722662.73100'
p4404
sS'1466'
p4405
S'720329.40100'
p4406
sS'1461'
p4407
S'708769.45500'
p4408
sS'1460'
p4409
S'706478.29800'
p4410
sS'1463'
p4411
S'713372.77400'
p4412
sS'1019'
p4413
S'159456.00700'
p4414
sS'1317'
p4415
S'441729.01200'
p4416
sS'1316'
p4417
S'440260.77000'
p4418
sS'1315'
p4419
S'438796.72900'
p4420
sS'1314'
p4421
S'437337.77500'
p4422
sS'1313'
p4423
S'435883.00600'
p4424
sS'1312'
p4425
S'434433.30500'
p4426
sS'1311'
p4427
S'432987.77100'
p4428
sS'1310'
p4429
S'431547.28700'
p4430
sS'3276'
p4431
S'93381797.50000'
p4432
sS'1319'
p4433
S'444679.02700'
p4434
sS'1318'
p4435
S'443201.46200'
p4436
sS'2460'
p4437
S'13086409.20000'
p4438
sS'1010'
p4439
S'154500.32700'
p4440
sS'1011'
p4441
S'155043.63500'
p4442
sS'3445'
p4443
S'135021547.00000'
p4444
sS'3035'
p4445
S'54033006.70000'
p4446
sS'3444'
p4447
S'134731921.00000'
p4448
sS'3447'
p4449
S'135602502.00000'
p4450
sS'319'
p4451
S'10799.84040'
p4452
sS'318'
p4453
S'10746.07650'
p4454
sS'3403'
p4455
S'123334136.00000'
p4456
sS'313'
p4457
S'10479.51530'
p4458
sS'312'
p4459
S'10426.60980'
p4460
sS'311'
p4461
S'10373.81190'
p4462
sS'310'
p4463
S'10321.22340'
p4464
sS'317'
p4465
S'10692.42180'
p4466
sS'316'
p4467
S'10638.98100'
p4468
sS'315'
p4469
S'10585.64860'
p4470
sS'314'
p4471
S'10532.52820'
p4472
sS'3491'
p4473
S'148974862.00000'
p4474
sS'3443'
p4475
S'134442863.00000'
p4476
sS'3442'
p4477
S'134154374.00000'
p4478
sS'2756'
p4479
S'27730149.80000'
p4480
sS'3402'
p4481
S'123067482.00000'
p4482
sS'2757'
p4483
S'27798430.10000'
p4484
sS'2754'
p4485
S'27594046.50000'
p4486
sS'1335'
p4487
S'468961.14300'
p4488
sS'2755'
p4489
S'27662022.00000'
p4490
sS'1334'
p4491
S'467407.69000'
p4492
sS'2752'
p4493
S'27458560.10000'
p4494
sS'1337'
p4495
S'472082.97800'
p4496
sS'2753'
p4497
S'27526225.90000'
p4498
sS'3405'
p4499
S'123869033.00000'
p4500
sS'1336'
p4501
S'470519.87500'
p4502
sS'2750'
p4503
S'27323681.10000'
p4504
sS'2322'
p4505
S'9071034.29000'
p4506
sS'1331'
p4507
S'462776.15900'
p4508
sS'2698'
p4509
S'24022911.40000'
p4510
sS'1330'
p4511
S'461241.89400'
p4512
sS'3201'
p4513
S'78979570.80000'
p4514
sS'1333'
p4515
S'465859.50400'
p4516
sS'1332'
p4517
S'464315.66300'
p4518
sS'3404'
p4519
S'123601321.00000'
p4520
sS'3273'
p4521
S'92762519.70000'
p4522
sS'2694'
p4523
S'23784807.00000'
p4524
sS'2324'
p4525
S'9120048.93000'
p4526
sS'2908'
p4527
S'40069410.10000'
p4528
sS'2692'
p4529
S'23666566.10000'
p4530
sS'630'
p4531
S'39047.54800'
p4532
sS'3407'
p4533
S'124406043.00000'
p4534
sS'2461'
p4535
S'13120695.30000'
p4536
sS'2299'
p4537
S'8524506.71000'
p4538
sS'2298'
p4539
S'8501447.03000'
p4540
sS'2969'
p4541
S'46301287.10000'
p4542
sS'2293'
p4543
S'8387007.76000'
p4544
sS'2292'
p4545
S'8364291.63000'
p4546
sS'2291'
p4547
S'8341630.76000'
p4548
sS'2290'
p4549
S'8319027.18000'
p4550
sS'2297'
p4551
S'8478445.14000'
p4552
sS'2296'
p4553
S'8455500.97000'
p4554
sS'631'
p4555
S'39194.07840'
p4556
sS'2294'
p4557
S'8409781.31000'
p4558
sS'3406'
p4559
S'124137272.00000'
p4560
sS'2569'
p4561
S'17349120.80000'
p4562
sS'2568'
p4563
S'17304806.60000'
p4564
sS'2561'
p4565
S'16997508.00000'
p4566
sS'2560'
p4567
S'16954020.50000'
p4568
sS'2563'
p4569
S'17084793.80000'
p4570
sS'2562'
p4571
S'17041099.10000'
p4572
sS'2565'
p4573
S'17172489.70000'
p4574
sS'2564'
p4575
S'17128589.80000'
p4576
sS'2567'
p4577
S'17260596.70000'
p4578
sS'2566'
p4579
S'17216491.20000'
p4580
sS'1521'
p4581
S'859722.23400'
p4582
sS'2369'
p4583
S'10289463.90000'
p4584
sS'2368'
p4585
S'10262044.10000'
p4586
sS'2367'
p4587
S'10234692.00000'
p4588
sS'2366'
p4589
S'10207405.10000'
p4590
sS'2365'
p4591
S'10180187.90000'
p4592
sS'2364'
p4593
S'10153035.80000'
p4594
sS'2363'
p4595
S'10125951.00000'
p4596
sS'2362'
p4597
S'10098931.20000'
p4598
sS'2361'
p4599
S'10071980.60000'
p4600
sS'2360'
p4601
S'10045092.70000'
p4602
sS'2587'
p4603
S'18164783.20000'
p4604
sS'2586'
p4605
S'18118561.60000'
p4606
sS'2585'
p4607
S'18072449.20000'
p4608
sS'2584'
p4609
S'18026443.20000'
p4610
sS'2583'
p4611
S'17980543.50000'
p4612
sS'2582'
p4613
S'17934752.60000'
p4614
sS'2581'
p4615
S'17889067.80000'
p4616
sS'2580'
p4617
S'17843488.90000'
p4618
sS'2589'
p4619
S'18257551.70000'
p4620
sS'2588'
p4621
S'18211114.00000'
p4622
sS'1861'
p4623
S'2456350.90000'
p4624
sS'1860'
p4625
S'2449047.01000'
p4626
sS'1863'
p4627
S'2471018.23000'
p4628
sS'1862'
p4629
S'2463674.63000'
p4630
sS'1865'
p4631
S'2485768.22000'
p4632
sS'1864'
p4633
S'2478383.26000'
p4634
sS'1867'
p4635
S'2500598.07000'
p4636
sS'1866'
p4637
S'2493173.15000'
p4638
sS'1869'
p4639
S'2515511.07000'
p4640
sS'1868'
p4641
S'2508044.54000'
p4642
sS'3207'
p4643
S'80052254.70000'
p4644
sS'964'
p4645
S'131385.11200'
p4646
sS'965'
p4647
S'131850.55400'
p4648
sS'966'
p4649
S'132316.91800'
p4650
sS'967'
p4651
S'132785.89400'
p4652
sS'960'
p4653
S'129539.23900'
p4654
sS'961'
p4655
S'129998.21900'
p4656
sS'962'
p4657
S'130459.22800'
p4658
sS'963'
p4659
S'130921.15200'
p4660
sS'968'
p4661
S'133255.79900'
p4662
sS'969'
p4663
S'133727.19800'
p4664
sS'2109'
p4665
S'5041214.21000'
p4666
sS'2108'
p4667
S'5027005.99000'
p4668
sS'2103'
p4669
S'4956523.11000'
p4670
sS'2102'
p4671
S'4942535.63000'
p4672
sS'2101'
p4673
S'4928585.98000'
p4674
sS'2100'
p4675
S'4914672.29000'
p4676
sS'2107'
p4677
S'5012835.90000'
p4678
sS'2106'
p4679
S'4998702.07000'
p4680
sS'2105'
p4681
S'4984606.28000'
p4682
sS'2104'
p4683
S'4970546.64000'
p4684
sS'2639'
p4685
S'20722894.90000'
p4686
sS'2638'
p4687
S'20670734.60000'
p4688
sS'2635'
p4689
S'20514971.70000'
p4690
sS'2634'
p4691
S'20463292.20000'
p4692
sS'2637'
p4693
S'20618692.70000'
p4694
sS'2636'
p4695
S'20566771.80000'
p4696
sS'2631'
p4697
S'20308963.40000'
p4698
sS'2630'
p4699
S'20257760.00000'
p4700
sS'2633'
p4701
S'20411730.60000'
p4702
sS'2632'
p4703
S'20360286.90000'
p4704
sS'1560'
p4705
S'973459.15200'
p4706
sS'3438'
p4707
S'133006043.00000'
p4708
sS'1241'
p4709
S'342366.20100'
p4710
sS'878'
p4711
S'96742.77720'
p4712
sS'1240'
p4713
S'341211.81400'
p4714
sS'876'
p4715
S'96051.92890'
p4716
sS'877'
p4717
S'96396.99550'
p4718
sS'874'
p4719
S'95365.87190'
p4720
sS'875'
p4721
S'95708.54500'
p4722
sS'872'
p4723
S'94684.58250'
p4724
sS'1243'
p4725
S'344685.00900'
p4726
sS'870'
p4727
S'94008.03650'
p4728
sS'871'
p4729
S'94345.95840'
p4730
sS'2037'
p4731
S'4107753.69000'
p4732
sS'2036'
p4733
S'4095993.67000'
p4734
sS'2035'
p4735
S'4084266.54000'
p4736
sS'1242'
p4737
S'343523.38300'
p4738
sS'2033'
p4739
S'4060905.51000'
p4740
sS'2032'
p4741
S'4049271.54000'
p4742
sS'2031'
p4743
S'4037668.53000'
p4744
sS'2030'
p4745
S'4026094.72000'
p4746
sS'9'
p4747
S'68.24371'
p4748
sS'1245'
p4749
S'347019.16100'
p4750
sS'3483'
p4751
S'146457485.00000'
p4752
sS'2039'
p4753
S'4131363.85000'
p4754
sS'1244'
p4755
S'345850.26600'
p4756
sS'890'
p4757
S'100988.34300'
p4758
sS'891'
p4759
S'101350.00100'
p4760
sS'892'
p4761
S'101712.90200'
p4762
sS'893'
p4763
S'102077.54700'
p4764
sS'894'
p4765
S'102442.94200'
p4766
sS'1247'
p4767
S'349368.71800'
p4768
sS'896'
p4769
S'103177.48900'
p4770
sS'897'
p4771
S'103546.64700'
p4772
sS'898'
p4773
S'103917.06600'
p4774
sS'899'
p4775
S'104289.25200'
p4776
sS'646'
p4777
S'41458.38210'
p4778
sS'3484'
p4779
S'146770020.00000'
p4780
sS'1249'
p4781
S'351732.08600'
p4782
sS'648'
p4783
S'41769.27970'
p4784
sS'3236'
p4785
S'85426975.60000'
p4786
sS'3237'
p4787
S'85618055.30000'
p4788
sS'3099'
p4789
S'62640772.60000'
p4790
sS'3234'
p4791
S'85045985.70000'
p4792
sS'3011'
p4793
S'51094451.60000'
p4794
sS'3235'
p4795
S'85236284.70000'
p4796
sS'1537'
p4797
S'904789.94600'
p4798
sS'1964'
p4799
S'3326677.33000'
p4800
sS'1965'
p4801
S'3336376.94000'
p4802
sS'1966'
p4803
S'3346103.09000'
p4804
sS'1788'
p4805
S'1973100.30000'
p4806
sS'1789'
p4807
S'1979077.57000'
p4808
sS'768'
p4809
S'65014.08810'
p4810
sS'769'
p4811
S'65251.61050'
p4812
sS'2961'
p4813
S'45436353.50000'
p4814
sS'2960'
p4815
S'45329282.80000'
p4816
sS'2963'
p4817
S'45651191.80000'
p4818
sS'2962'
p4819
S'45543656.40000'
p4820
sS'762'
p4821
S'63606.84310'
p4822
sS'763'
p4823
S'63839.32240'
p4824
sS'760'
p4825
S'63144.18400'
p4826
sS'761'
p4827
S'63374.86950'
p4828
sS'766'
p4829
S'64541.77820'
p4830
sS'767'
p4831
S'64777.47820'
p4832
sS'764'
p4833
S'64072.70220'
p4834
sS'765'
p4835
S'64306.58990'
p4836
sS'3049'
p4837
S'55817727.50000'
p4838
sS'3048'
p4839
S'55688482.80000'
p4840
sS'1962'
p4841
S'3307354.31000'
p4842
sS'3041'
p4843
S'54791398.40000'
p4844
sS'3040'
p4845
S'54664329.00000'
p4846
sS'3043'
p4847
S'55046349.50000'
p4848
sS'1963'
p4849
S'3317002.58000'
p4850
sS'3045'
p4851
S'55302386.60000'
p4852
sS'3044'
p4853
S'55174231.80000'
p4854
sS'3047'
p4855
S'55559511.80000'
p4856
sS'3046'
p4857
S'55430811.10000'
p4858
sS'1078'
p4859
S'195902.87400'
p4860
sS'1079'
p4861
S'196584.40900'
p4862
sS'1076'
p4863
S'194546.92200'
p4864
sS'1077'
p4865
S'195223.93400'
p4866
sS'1074'
p4867
S'193199.98400'
p4868
sS'1075'
p4869
S'193872.49300'
p4870
sS'1072'
p4871
S'191861.36300'
p4872
sS'1073'
p4873
S'192529.38900'
p4874
sS'1070'
p4875
S'190532.33800'
p4876
sS'1071'
p4877
S'191195.90000'
p4878
sS'1678'
p4879
S'1409142.30000'
p4880
sS'1561'
p4881
S'976553.57700'
p4882
sS'3030'
p4883
S'53408363.10000'
p4884
sS'1674'
p4885
S'1391791.00000'
p4886
sS'1675'
p4887
S'1396109.56000'
p4888
sS'1676'
p4889
S'1400441.81000'
p4890
sS'1677'
p4891
S'1404785.18000'
p4892
sS'1670'
p4893
S'1374639.07000'
p4894
sS'1671'
p4895
S'1378909.52000'
p4896
sS'1672'
p4897
S'1383191.00000'
p4898
sS'1673'
p4899
S'1387484.82000'
p4900
sS'1094'
p4901
S'207079.77000'
p4902
sS'1095'
p4903
S'207798.20000'
p4904
sS'1096'
p4905
S'208519.31800'
p4906
sS'1097'
p4907
S'209242.45000'
p4908
sS'1090'
p4909
S'204230.11000'
p4910
sS'1091'
p4911
S'204939.19700'
p4912
sS'1092'
p4913
S'205650.27400'
p4914
sS'1093'
p4915
S'206364.02200'
p4916
sS'674'
p4917
S'46014.75880'
p4918
sS'675'
p4919
S'46185.97690'
p4920
sS'676'
p4921
S'46357.57810'
p4922
sS'677'
p4923
S'46529.89170'
p4924
sS'1098'
p4925
S'209967.60100'
p4926
sS'1099'
p4927
S'210695.45500'
p4928
sS'672'
p4929
S'45674.44670'
p4930
sS'673'
p4931
S'45844.24960'
p4932
sS'3135'
p4933
S'68016363.20000'
p4934
sS'3134'
p4935
S'67861521.90000'
p4936
sS'3137'
p4937
S'68327017.60000'
p4938
sS'3136'
p4939
S'68171530.60000'
p4940
sS'3131'
p4941
S'67398927.50000'
p4942
sS'3130'
p4943
S'67245370.40000'
p4944
sS'3133'
p4945
S'67707002.90000'
p4946
sS'3132'
p4947
S'67552806.00000'
p4948
sS'3139'
p4949
S'68638968.60000'
p4950
sS'3138'
p4951
S'68482831.30000'
p4952
sS'3015'
p4953
S'51573829.00000'
p4954
sS'1997'
p4955
S'3660962.89000'
p4956
sS'1533'
p4957
S'893320.01200'
p4958
sS'1418'
p4959
S'616294.12700'
p4960
sS'1419'
p4961
S'618309.53200'
p4962
sS'2490'
p4963
S'14151627.60000'
p4964
sS'1410'
p4965
S'600392.18700'
p4966
sS'1411'
p4967
S'602358.74000'
p4968
sS'1412'
p4969
S'604331.36100'
p4970
sS'1413'
p4971
S'606310.06000'
p4972
sS'1414'
p4973
S'608293.85000'
p4974
sS'1415'
p4975
S'610284.74000'
p4976
sS'1416'
p4977
S'612281.74200'
p4978
sS'1417'
p4979
S'614284.86700'
p4980
sS'1322'
p4981
S'449139.81200'
p4982
sS'1323'
p4983
S'450636.13300'
p4984
sS'1320'
p4985
S'446161.71800'
p4986
sS'1321'
p4987
S'447648.64400'
p4988
sS'1326'
p4989
S'455153.40100'
p4990
sS'1327'
p4991
S'456668.62100'
p4992
sS'1324'
p4993
S'452137.61800'
p4994
sS'1325'
p4995
S'453642.46500'
p4996
sS'1328'
p4997
S'458188.13500'
p4998
sS'1329'
p4999
S'459712.86000'
p5000
sS'2494'
p5001
S'14299521.90000'
p5002
sS'5'
p5003
S'36.66780'
p5004
sS'1531'
p5005
S'887636.79400'
p5006
sS'2874'
p5007
S'36938856.90000'
p5008
sS'1256'
p5009
S'360126.64000'
p5010
sS'1257'
p5011
S'361341.42300'
p5012
sS'1254'
p5013
S'357709.08100'
p5014
sS'1255'
p5015
S'358915.58400'
p5016
sS'1252'
p5017
S'355307.20100'
p5018
sS'1253'
p5019
S'356506.28900'
p5020
sS'1250'
p5021
S'352920.10600'
p5022
sS'1251'
p5023
S'354111.80900'
p5024
sS'1528'
p5025
S'879174.77100'
p5026
sS'1529'
p5027
S'881987.16600'
p5028
sS'1258'
p5029
S'362559.10300'
p5030
sS'1259'
p5031
S'363781.36100'
p5032
sS'308'
p5033
S'10216.46720'
p5034
sS'309'
p5035
S'10268.74150'
p5036
sS'300'
p5037
S'9802.76635'
p5038
sS'301'
p5039
S'9854.00078'
p5040
sS'302'
p5041
S'9905.33957'
p5042
sS'303'
p5043
S'9956.88103'
p5044
sS'304'
p5045
S'10008.52770'
p5046
sS'305'
p5047
S'10060.27940'
p5048
sS'306'
p5049
S'10112.23610'
p5050
sS'307'
p5051
S'10164.19840'
p5052
sS'1792'
p5053
S'1997106.25000'
p5054
sS'2254'
p5055
S'7541885.97000'
p5056
sS'2858'
p5057
S'35544570.20000'
p5058
sS'2575'
p5059
S'17617195.00000'
p5060
sS'2978'
p5061
S'47292327.00000'
p5062
sS'2979'
p5063
S'47403630.40000'
p5064
sS'3340'
p5065
S'107526220.00000'
p5066
sS'3058'
p5067
S'56993339.00000'
p5068
sS'3059'
p5069
S'57125348.60000'
p5070
sS'2475'
p5071
S'13609446.50000'
p5072
sS'3415'
p5073
S'126575404.00000'
p5074
sS'3056'
p5075
S'56730152.00000'
p5076
sS'2474'
p5077
S'13573990.30000'
p5078
sS'3057'
p5079
S'56861605.80000'
p5080
sS'3054'
p5081
S'56468078.40000'
p5082
sS'3204'
p5083
S'79514261.60000'
p5084
sS'3055'
p5085
S'56598977.40000'
p5086
sS'3052'
p5087
S'56207109.40000'
p5088
sS'3412'
p5089
S'125757883.00000'
p5090
sS'3053'
p5091
S'56337454.80000'
p5092
sS'2974'
p5093
S'46849493.20000'
p5094
sS'2975'
p5095
S'46959843.30000'
p5096
sS'3413'
p5097
S'126029852.00000'
p5098
sS'2479'
p5099
S'13752132.10000'
p5100
sS'2478'
p5101
S'13716330.90000'
p5102
sS'470'
p5103
S'21021.55890'
p5104
sS'2950'
p5105
S'44271197.00000'
p5106
sS'2990'
p5107
S'48643897.30000'
p5108
sS'2358'
p5109
S'9991519.81000'
p5110
sS'2359'
p5111
S'10018273.90000'
p5112
sS'2352'
p5113
S'9832370.10000'
p5114
sS'2353'
p5115
S'9858731.45000'
p5116
sS'2350'
p5117
S'9779841.77000'
p5118
sS'2351'
p5119
S'9806072.85000'
p5120
sS'2356'
p5121
S'9938207.38000'
p5122
sS'2357'
p5123
S'9964830.26000'
p5124
sS'2354'
p5125
S'9885159.14000'
p5126
sS'471'
p5127
S'21106.68460'
p5128
sS'2991'
p5129
S'48758106.30000'
p5130
sS'3398'
p5131
S'122006109.00000'
p5132
sS'1898'
p5133
S'2741226.64000'
p5134
sS'1899'
p5135
S'2749333.98000'
p5136
sS'1894'
p5137
S'2709014.68000'
p5138
sS'1895'
p5139
S'2717035.12000'
p5140
sS'1896'
p5141
S'2725076.46000'
p5142
sS'1443'
p5143
S'668576.85300'
p5144
sS'1890'
p5145
S'2677153.68000'
p5146
sS'476'
p5147
S'21536.27890'
p5148
sS'1892'
p5149
S'2693041.02000'
p5150
sS'1893'
p5151
S'2701016.65000'
p5152
sS'959'
p5153
S'129081.72500'
p5154
sS'958'
p5155
S'128625.67500'
p5156
sS'2134'
p5157
S'5408674.02000'
p5158
sS'2135'
p5159
S'5423873.69000'
p5160
sS'2132'
p5161
S'5378391.26000'
p5162
sS'2133'
p5163
S'5393513.85000'
p5164
sS'2130'
p5165
S'5348266.10000'
p5166
sS'2131'
p5167
S'5363309.94000'
p5168
sS'951'
p5169
S'125476.77000'
p5170
sS'950'
p5171
S'125033.40300'
p5172
sS'953'
p5173
S'126368.91200'
p5174
sS'952'
p5175
S'125922.12200'
p5176
sS'955'
p5177
S'127267.37600'
p5178
sS'954'
p5179
S'126817.14500'
p5180
sS'957'
p5181
S'128171.63900'
p5182
sS'956'
p5183
S'127718.50400'
p5184
sS'1442'
p5185
S'666408.49900'
p5186
sS'477'
p5187
S'21623.11340'
p5188
sS'2648'
p5189
S'21197806.30000'
p5190
sS'2649'
p5191
S'21251184.90000'
p5192
sS'2640'
p5193
S'20775176.50000'
p5194
sS'2641'
p5195
S'20827579.40000'
p5196
sS'2642'
p5197
S'20880103.70000'
p5198
sS'2643'
p5199
S'20932747.10000'
p5200
sS'2644'
p5201
S'20985514.90000'
p5202
sS'2645'
p5203
S'21038404.50000'
p5204
sS'2646'
p5205
S'21091416.20000'
p5206
sS'2647'
p5207
S'21144550.10000'
p5208
sS'3429'
p5209
S'130455025.00000'
p5210
sS'3428'
p5211
S'130174351.00000'
p5212
sS'3423'
p5213
S'128779234.00000'
p5214
sS'3422'
p5215
S'128501855.00000'
p5216
sS'3421'
p5217
S'128225020.00000'
p5218
sS'3420'
p5219
S'127948728.00000'
p5220
sS'3427'
p5221
S'129894231.00000'
p5222
sS'3426'
p5223
S'129614657.00000'
p5224
sS'3425'
p5225
S'129335637.00000'
p5226
sS'3424'
p5227
S'129057161.00000'
p5228
sS'2002'
p5229
S'3714242.29000'
p5230
sS'2003'
p5231
S'3724984.70000'
p5232
sS'2000'
p5233
S'3692844.79000'
p5234
sS'2001'
p5235
S'3703529.56000'
p5236
sS'2006'
p5237
S'3757380.33000'
p5238
sS'1440'
p5239
S'662090.01200'
p5240
sS'2004'
p5241
S'3735753.46000'
p5242
sS'2005'
p5243
S'3746553.69000'
p5244
sS'3033'
p5245
S'53782351.70000'
p5246
sS'2008'
p5247
S'3779123.24000'
p5248
sS'2009'
p5249
S'3790037.88000'
p5250
sS'2034'
p5251
S'4072570.50000'
p5252
sS'1790'
p5253
S'1985069.78000'
p5254
sS'3331'
p5255
S'105425602.00000'
p5256
sS'2852'
p5257
S'35034255.10000'
p5258
sS'3026'
p5259
S'52913406.50000'
p5260
sS'3197'
p5261
S'78271761.30000'
p5262
sS'1263'
p5263
S'368709.63300'
p5264
sS'666'
p5265
S'44667.43630'
p5266
sS'2176'
p5267
S'6082099.31000'
p5268
sS'1261'
p5269
S'366237.96900'
p5270
sS'2177'
p5271
S'6099037.93000'
p5272
sS'2910'
p5273
S'40260909.70000'
p5274
sS'2911'
p5275
S'40356973.30000'
p5276
sS'1799'
p5277
S'2039770.44000'
p5278
sS'1260'
p5279
S'365008.20600'
p5280
sS'2914'
p5281
S'40646425.10000'
p5282
sS'2915'
p5283
S'40743330.20000'
p5284
sS'719'
p5285
S'54337.06870'
p5286
sS'718'
p5287
S'54137.44780'
p5288
sS'717'
p5289
S'53938.98520'
p5290
sS'716'
p5291
S'53740.60260'
p5292
sS'715'
p5293
S'53543.37300'
p5294
sS'714'
p5295
S'53346.57900'
p5296
sS'713'
p5297
S'53150.57590'
p5298
sS'712'
p5299
S'52955.36100'
p5300
sS'711'
p5301
S'52760.57770'
p5302
sS'710'
p5303
S'52566.57910'
p5304
sS'661'
p5305
S'43843.96180'
p5306
sS'660'
p5307
S'43680.87960'
p5308
sS'2178'
p5309
S'6116018.44000'
p5310
sS'1069'
p5311
S'189870.67200'
p5312
sS'1068'
p5313
S'189211.55400'
p5314
sS'2179'
p5315
S'6133042.80000'
p5316
sS'1061'
p5317
S'184658.17100'
p5318
sS'1060'
p5319
S'184015.98900'
p5320
sS'1063'
p5321
S'185948.76300'
p5322
sS'1062'
p5323
S'185302.21100'
p5324
sS'1065'
p5325
S'187247.46900'
p5326
sS'1064'
p5327
S'186596.53000'
p5328
sS'1067'
p5329
S'188554.97800'
p5330
sS'1066'
p5331
S'187899.63200'
p5332
sS'3023'
p5333
S'52544947.70000'
p5334
sS'1669'
p5335
S'1370382.20000'
p5336
sS'1668'
p5337
S'1366137.62000'
p5338
sS'1667'
p5339
S'1361905.30000'
p5340
sS'1666'
p5341
S'1357685.21000'
p5342
sS'1665'
p5343
S'1353477.35000'
p5344
sS'1664'
p5345
S'1349281.68000'
p5346
sS'1663'
p5347
S'1345098.19000'
p5348
sS'1662'
p5349
S'1340925.59000'
p5350
sS'1661'
p5351
S'1336766.40000'
p5352
sS'1660'
p5353
S'1332619.33000'
p5354
sS'591'
p5355
S'33702.98470'
p5356
sS'590'
p5357
S'33575.28170'
p5358
sS'593'
p5359
S'33959.79420'
p5360
sS'592'
p5361
S'33831.24460'
p5362
sS'595'
p5363
S'34218.57610'
p5364
sS'594'
p5365
S'34088.90400'
p5366
sS'597'
p5367
S'34479.07230'
p5368
sS'596'
p5369
S'34348.54140'
p5370
sS'599'
p5371
S'34741.29260'
p5372
sS'598'
p5373
S'34609.89800'
p5374
sS'1089'
p5375
S'203523.68400'
p5376
sS'1088'
p5377
S'202819.23900'
p5378
sS'3140'
p5379
S'68795429.90000'
p5380
sS'3022'
p5381
S'52422649.40000'
p5382
sS'3142'
p5383
S'69109332.50000'
p5384
sS'3143'
p5385
S'69266774.40000'
p5386
sS'2828'
p5387
S'33059362.00000'
p5388
sS'2829'
p5389
S'33139571.40000'
p5390
sS'3146'
p5391
S'69741066.50000'
p5392
sS'3147'
p5393
S'69899821.50000'
p5394
sS'2824'
p5395
S'32740304.40000'
p5396
sS'2825'
p5397
S'32819805.10000'
p5398
sS'2826'
p5399
S'32899479.00000'
p5400
sS'2827'
p5401
S'32979332.30000'
p5402
sS'2820'
p5403
S'32424071.10000'
p5404
sS'2821'
p5405
S'32502866.10000'
p5406
sS'2822'
p5407
S'32581836.60000'
p5408
sS'2823'
p5409
S'32660982.60000'
p5410
sS'3386'
p5411
S'118871914.00000'
p5412
sS'3387'
p5413
S'119130262.00000'
p5414
sS'3384'
p5415
S'118356754.00000'
p5416
sS'3385'
p5417
S'118614080.00000'
p5418
sS'3382'
p5419
S'117843629.00000'
p5420
sS'3383'
p5421
S'118099937.00000'
p5422
sS'3380'
p5423
S'117332537.00000'
p5424
sS'3381'
p5425
S'117587831.00000'
p5426
sS'3388'
p5427
S'119389125.00000'
p5428
sS'3389'
p5429
S'119648496.00000'
p5430
sS'1409'
p5431
S'598431.69000'
p5432
sS'1408'
p5433
S'596477.23900'
p5434
sS'1403'
p5435
S'586795.27600'
p5436
sS'1402'
p5437
S'584875.87700'
p5438
sS'1401'
p5439
S'582963.43500'
p5440
sS'1400'
p5441
S'581056.94800'
p5442
sS'1407'
p5443
S'594528.82200'
p5444
sS'1406'
p5445
S'592586.42800'
p5446
sS'1405'
p5447
S'590650.04700'
p5448
sS'1404'
p5449
S'588719.66600'
p5450
sS'1546'
p5451
S'931101.82600'
p5452
sS'449'
p5453
S'19297.79750'
p5454
sS'448'
p5455
S'19218.62730'
p5456
sS'1339'
p5457
S'475224.16800'
p5458
sS'1338'
p5459
S'473651.37900'
p5460
sS'1547'
p5461
S'934069.94800'
p5462
sS'443'
p5463
S'18826.56020'
p5464
sS'442'
p5465
S'18748.93180'
p5466
sS'441'
p5467
S'18671.47060'
p5468
sS'440'
p5469
S'18594.17650'
p5470
sS'447'
p5471
S'19139.80460'
p5472
sS'446'
p5473
S'19060.97620'
p5474
sS'445'
p5475
S'18982.66900'
p5476
sS'444'
p5477
S'18904.53030'
p5478
sS'1520'
p5479
S'856976.26900'
p5480
sS'1542'
p5481
S'919320.52900'
p5482
sS'1543'
p5483
S'922253.11900'
p5484
sS'3261'
p5485
S'90322721.20000'
p5486
sS'39'
p5487
S'469.46523'
p5488
sS'38'
p5489
S'452.11860'
p5490
sS'1540'
p5491
S'913481.86800'
p5492
sS'3260'
p5493
S'90122072.90000'
p5494
sS'33'
p5495
S'368.96117'
p5496
sS'32'
p5497
S'353.07344'
p5498
sS'31'
p5499
S'337.44387'
p5500
sS'30'
p5501
S'322.07713'
p5502
sS'37'
p5503
S'435.00515'
p5504
sS'36'
p5505
S'418.12868'
p5506
sS'35'
p5507
S'401.49310'
p5508
sS'34'
p5509
S'385.10252'
p5510
sS'641'
p5511
S'40690.57370'
p5512
sS'640'
p5513
S'40538.59070'
p5514
sS'643'
p5515
S'40996.17450'
p5516
sS'642'
p5517
S'40842.89860'
p5518
sS'645'
p5519
S'41303.76280'
p5520
sS'644'
p5521
S'41149.49080'
p5522
sS'647'
p5523
S'41613.65630'
p5524
sS'1246'
p5525
S'348191.70000'
p5526
sS'649'
p5527
S'41925.56130'
p5528
sS'1248'
p5529
S'350548.56900'
p5530
sS'3098'
p5531
S'62497158.50000'
p5532
sS'2496'
p5533
S'14374001.80000'
p5534
sS'1539'
p5535
S'910575.76700'
p5536
sS'1538'
p5537
S'907678.46500'
p5538
sS'339'
p5539
S'11906.11550'
p5540
sS'338'
p5541
S'11849.33140'
p5542
sS'335'
p5543
S'11680.01490'
p5544
sS'334'
p5545
S'11623.80500'
p5546
sS'337'
p5547
S'11792.77810'
p5548
sS'336'
p5549
S'11736.22440'
p5550
sS'331'
p5551
S'11456.31200'
p5552
sS'330'
p5553
S'11400.78210'
p5554
sS'333'
p5555
S'11567.82300'
p5556
sS'332'
p5557
S'11511.95460'
p5558
sS'1026'
p5559
S'163414.51800'
p5560
sS'3377'
p5561
S'116569690.00000'
p5562
sS'2118'
p5563
S'5170757.88000'
p5564
sS'3467'
p5565
S'141538791.00000'
p5566
sS'3466'
p5567
S'141236440.00000'
p5568
sS'3195'
p5569
S'77920037.10000'
p5570
sS'3464'
p5571
S'140633493.00000'
p5572
sS'8'
p5573
S'59.75605'
p5574
sS'3463'
p5575
S'140332905.00000'
p5576
sS'2119'
p5577
S'5185339.30000'
p5578
sS'3462'
p5579
S'140032901.00000'
p5580
sS'3461'
p5581
S'139733481.00000'
p5582
sS'3460'
p5583
S'139434648.00000'
p5584
sS'3375'
p5585
S'116063644.00000'
p5586
sS'3200'
p5587
S'78802075.50000'
p5588
sS'1462'
p5589
S'711067.25900'
p5590
sS'2854'
p5591
S'35203609.10000'
p5592
sS'3435'
p5593
S'132150691.00000'
p5594
sS'3469'
p5595
S'142145274.00000'
p5596
sS'3468'
p5597
S'141841737.00000'
p5598
sS'1991'
p5599
S'3597961.98000'
p5600
sS'2345'
p5601
S'9649645.91000'
p5602
sS'2344'
p5603
S'9623797.22000'
p5604
sS'2347'
p5605
S'9701531.80000'
p5606
sS'2346'
p5607
S'9675555.97000'
p5608
sS'2341'
p5609
S'9546638.01000'
p5610
sS'2340'
p5611
S'9521044.79000'
p5612
sS'2343'
p5613
S'9598014.14000'
p5614
sS'2342'
p5615
S'9572294.43000'
p5616
sS'2349'
p5617
S'9753672.46000'
p5618
sS'2348'
p5619
S'9727569.17000'
p5620
sS'3253'
p5621
S'88728900.50000'
p5622
sS'1889'
p5623
S'2669243.46000'
p5624
sS'1888'
p5625
S'2661353.95000'
p5626
sS'1887'
p5627
S'2653486.66000'
p5628
sS'1886'
p5629
S'2645641.57000'
p5630
sS'1885'
p5631
S'2637817.08000'
p5632
sS'1884'
p5633
S'2630014.73000'
p5634
sS'1883'
p5635
S'2622232.92000'
p5636
sS'1882'
p5637
S'2614473.18000'
p5638
sS'1881'
p5639
S'2606733.92000'
p5640
sS'1880'
p5641
S'2599016.66000'
p5642
sS'2121'
p5643
S'5214618.31000'
p5644
sS'2120'
p5645
S'5199959.42000'
p5646
sS'2123'
p5647
S'5244048.89000'
p5648
sS'2122'
p5649
S'5229314.17000'
p5650
sS'2125'
p5651
S'5273631.44000'
p5652
sS'2124'
p5653
S'5258820.68000'
p5654
sS'948'
p5655
S'124149.86500'
p5656
sS'949'
p5657
S'124590.91900'
p5658
sS'946'
p5659
S'123273.12200'
p5660
sS'947'
p5661
S'123710.78300'
p5662
sS'944'
p5663
S'122402.05200'
p5664
sS'945'
p5665
S'122836.88000'
p5666
sS'942'
p5667
S'121536.63000'
p5668
sS'943'
p5669
S'121968.63700'
p5670
sS'940'
p5671
S'120677.37000'
p5672
sS'941'
p5673
S'121106.02900'
p5674
sS'3038'
p5675
S'54410994.60000'
p5676
sS'2410'
p5677
S'11473436.90000'
p5678
sS'2659'
p5679
S'21791799.90000'
p5680
sS'2658'
p5681
S'21737175.90000'
p5682
sS'2653'
p5683
S'21465937.30000'
p5684
sS'2652'
p5685
S'21412064.80000'
p5686
sS'2651'
p5687
S'21358312.70000'
p5688
sS'2650'
p5689
S'21304688.80000'
p5690
sS'2657'
p5691
S'21682678.40000'
p5692
sS'2656'
p5693
S'21628307.20000'
p5694
sS'2655'
p5695
S'21574059.60000'
p5696
sS'2654'
p5697
S'21519935.50000'
p5698
sS'133'
p5699
S'2873.76381'
p5700
sS'132'
p5701
S'2841.62898'
p5702
sS'131'
p5703
S'2809.61529'
p5704
sS'130'
p5705
S'2777.72321'
p5706
sS'137'
p5707
S'3003.50578'
p5708
sS'136'
p5709
S'2970.89077'
p5710
sS'135'
p5711
S'2938.39514'
p5712
sS'134'
p5713
S'2906.01934'
p5714
sS'139'
p5715
S'3069.09229'
p5716
sS'138'
p5717
S'3036.23976'
p5718
sS'3418'
p5719
S'127397775.00000'
p5720
sS'3419'
p5721
S'127672982.00000'
p5722
sS'2019'
p5723
S'3900802.76000'
p5724
sS'2018'
p5725
S'3889593.22000'
p5726
sS'2015'
p5727
S'3856143.20000'
p5728
sS'2014'
p5729
S'3845051.44000'
p5730
sS'2017'
p5731
S'3878412.34000'
p5732
sS'2016'
p5733
S'3867263.48000'
p5734
sS'2011'
p5735
S'3811955.44000'
p5736
sS'2010'
p5737
S'3800982.50000'
p5738
sS'2013'
p5739
S'3833989.87000'
p5740
sS'2012'
p5741
S'3822958.46000'
p5742
sS'3277'
p5743
S'93589062.30000'
p5744
sS'1793'
p5745
S'2003150.57000'
p5746
sS'3034'
p5747
S'53907545.90000'
p5748
sS'2112'
p5749
S'5084059.06000'
p5750
sS'3000'
p5751
S'49797093.50000'
p5752
sS'2903'
p5753
S'39594302.40000'
p5754
sS'2902'
p5755
S'39499902.10000'
p5756
sS'2901'
p5757
S'39405708.30000'
p5758
sS'2900'
p5759
S'39311717.80000'
p5760
sS'708'
p5761
S'52180.57340'
p5762
sS'709'
p5763
S'52373.36240'
p5764
sS'2905'
p5765
S'39783723.70000'
p5766
sS'2904'
p5767
S'39688909.60000'
p5768
sS'704'
p5769
S'51416.82700'
p5770
sS'705'
p5771
S'51606.51700'
p5772
sS'706'
p5773
S'51797.32810'
p5774
sS'707'
p5775
S'51988.56290'
p5776
sS'700'
p5777
S'50663.30180'
p5778
sS'701'
p5779
S'50850.62250'
p5780
sS'702'
p5781
S'51038.70670'
p5782
sS'703'
p5783
S'51227.20890'
p5784
sS'3037'
p5785
S'54284732.40000'
p5786
sS'88'
p5787
S'1554.95225'
p5788
sS'89'
p5789
S'1581.24264'
p5790
sS'82'
p5791
S'1400.34340'
p5792
sS'83'
p5793
S'1425.73418'
p5794
sS'80'
p5795
S'1350.02191'
p5796
sS'81'
p5797
S'1375.10567'
p5798
sS'86'
p5799
S'1502.81569'
p5800
sS'87'
p5801
S'1528.80965'
p5802
sS'84'
p5803
S'1451.27708'
p5804
sS'85'
p5805
S'1476.97121'
p5806
sS'3036'
p5807
S'54158737.50000'
p5808
sS'1658'
p5809
S'1324360.20000'
p5810
sS'1659'
p5811
S'1328483.08000'
p5812
sS'1652'
p5813
S'1299867.83000'
p5814
sS'1388'
p5815
S'558627.09200'
p5816
sS'1650'
p5817
S'1291799.46000'
p5818
sS'1651'
p5819
S'1295827.68000'
p5820
sS'1656'
p5821
S'1316149.31000'
p5822
sS'1657'
p5823
S'1320248.10000'
p5824
sS'1654'
p5825
S'1307985.24000'
p5826
sS'1389'
p5827
S'560464.88900'
p5828
sS'586'
p5829
S'33068.67040'
p5830
sS'587'
p5831
S'33194.69560'
p5832
sS'584'
p5833
S'32817.99950'
p5834
sS'585'
p5835
S'32943.19360'
p5836
sS'582'
p5837
S'32568.98280'
p5838
sS'583'
p5839
S'32693.35070'
p5840
sS'580'
p5841
S'32321.61040'
p5842
sS'581'
p5843
S'32445.15700'
p5844
sS'1984'
p5845
S'3525730.34000'
p5846
sS'588'
p5847
S'33321.00540'
p5848
sS'589'
p5849
S'33448.13340'
p5850
sS'3153'
p5851
S'70859315.40000'
p5852
sS'3152'
p5853
S'70698569.10000'
p5854
sS'3151'
p5855
S'70538154.40000'
p5856
sS'1633'
p5857
S'1225070.05000'
p5858
sS'3157'
p5859
S'71505646.70000'
p5860
sS'3156'
p5861
S'71343560.60000'
p5862
sS'2839'
p5863
S'33951509.40000'
p5864
sS'2838'
p5865
S'33869501.70000'
p5866
sS'2837'
p5867
S'33787678.50000'
p5868
sS'1982'
p5869
S'3505339.80000'
p5870
sS'2835'
p5871
S'33624573.20000'
p5872
sS'2834'
p5873
S'33543290.70000'
p5874
sS'2833'
p5875
S'33462188.90000'
p5876
sS'2832'
p5877
S'33381264.80000'
p5878
sS'2831'
p5879
S'33300521.20000'
p5880
sS'1983'
p5881
S'3515521.45000'
p5882
sS'1436'
p5883
S'653532.79800'
p5884
sS'1437'
p5885
S'655661.77700'
p5886
sS'1434'
p5887
S'649292.85600'
p5888
sS'1435'
p5889
S'651410.16800'
p5890
sS'1432'
p5891
S'645079.24700'
p5892
sS'1433'
p5893
S'647182.89300'
p5894
sS'1430'
p5895
S'640890.85700'
p5896
sS'1431'
p5897
S'642981.90500'
p5898
sS'3399'
p5899
S'122270666.00000'
p5900
sS'1380'
p5901
S'544129.38000'
p5902
sS'1981'
p5903
S'3495185.35000'
p5904
sS'1438'
p5905
S'657798.14400'
p5906
sS'1381'
p5907
S'545921.90200'
p5908
sS'1349'
p5909
S'491228.57400'
p5910
sS'1541'
p5911
S'916396.78300'
p5912
sS'1348'
p5913
S'489605.87200'
p5914
sS'459'
p5915
S'20104.07190'
p5916
sS'450'
p5917
S'19377.31700'
p5918
sS'451'
p5919
S'19457.00920'
p5920
sS'452'
p5921
S'19537.05320'
p5922
sS'1343'
p5923
S'481566.75300'
p5924
sS'1344'
p5925
S'483164.38000'
p5926
sS'1345'
p5927
S'484767.37400'
p5928
sS'456'
p5929
S'19859.33320'
p5930
sS'457'
p5931
S'19940.61370'
p5932
sS'3032'
p5933
S'53657423.90000'
p5934
sS'3263'
p5935
S'90725238.10000'
p5936
sS'3368'
p5937
S'114308228.00000'
p5938
sS'656'
p5939
S'43035.02890'
p5940
sS'657'
p5941
S'43195.71290'
p5942
sS'654'
p5943
S'42715.05370'
p5944
sS'655'
p5945
S'42874.70510'
p5946
sS'652'
p5947
S'42397.75800'
p5948
sS'653'
p5949
S'42556.07210'
p5950
sS'650'
p5951
S'42082.50360'
p5952
sS'651'
p5953
S'42239.79870'
p5954
sS'3085'
p5955
S'60657320.30000'
p5956
sS'3084'
p5957
S'60517866.10000'
p5958
sS'1508'
p5959
S'824662.67600'
p5960
sS'1509'
p5961
S'827310.71800'
p5962
sS'3081'
p5963
S'60101261.40000'
p5964
sS'3080'
p5965
S'59962977.10000'
p5966
sS'658'
p5967
S'43356.75760'
p5968
sS'516'
p5969
S'25242.30300'
p5970
sS'1992'
p5971
S'3608391.88000'
p5972
sS'2127'
p5973
S'5303370.09000'
p5974
sS'2126'
p5975
S'5288481.22000'
p5976
sS'2129'
p5977
S'5333261.54000'
p5978
sS'2128'
p5979
S'5318296.22000'
p5980
sS'2815'
p5981
S'32032709.20000'
p5982
sS'2814'
p5983
S'31954959.80000'
p5984
sS'1376'
p5985
S'537014.58700'
p5986
sS'322'
p5987
S'10961.89450'
p5988
sS'323'
p5989
S'11016.20340'
p5990
sS'320'
p5991
S'10853.71350'
p5992
sS'321'
p5993
S'10907.69560'
p5994
sS'326'
p5995
S'11180.11860'
p5996
sS'327'
p5997
S'11235.08890'
p5998
sS'324'
p5999
S'11070.73090'
p6000
sS'325'
p6001
S'11125.36930'
p6002
sS'328'
p6003
S'11290.17100'
p6004
sS'329'
p6005
S'11345.36480'
p6006
sS'3365'
p6007
S'113563354.00000'
p6008
sS'2819'
p6009
S'32345448.50000'
p6010
sS'1340'
p6011
S'476802.27400'
p6012
sS'2818'
p6013
S'32267003.70000'
p6014
sS'2330'
p6015
S'9268565.32000'
p6016
sS'2331'
p6017
S'9293532.94000'
p6018
sS'2332'
p6019
S'9318562.97000'
p6020
sS'2333'
p6021
S'9343655.51000'
p6022
sS'2334'
p6023
S'9368808.48000'
p6024
sS'2335'
p6025
S'9394024.10000'
p6026
sS'2336'
p6027
S'9419304.60000'
p6028
sS'1594'
p6029
S'1083947.47000'
p6030
sS'2338'
p6031
S'9470049.83000'
p6032
sS'2339'
p6033
S'9495516.86000'
p6034
sS'1341'
p6035
S'478385.70800'
p6036
sS'3072'
p6037
S'58867124.90000'
p6038
sS'3073'
p6039
S'59003096.60000'
p6040
sS'1995'
p6041
S'3639850.71000'
p6042
sS'2958'
p6043
S'45115834.00000'
p6044
sS'2959'
p6045
S'45222441.00000'
p6046
sS'3076'
p6047
S'59412739.50000'
p6048
sS'1592'
p6049
S'1077136.51000'
p6050
sS'3078'
p6051
S'59687279.30000'
p6052
sS'3079'
p6053
S'59824982.10000'
p6054
sS'2488'
p6055
S'14078209.20000'
p6056
sS'2489'
p6057
S'14114874.30000'
p6058
sS'2486'
p6059
S'14005138.20000'
p6060
sS'2487'
p6061
S'14041629.70000'
p6062
sS'2484'
p6063
S'13932418.60000'
p6064
sS'2485'
p6065
S'13968734.50000'
p6066
sS'2482'
p6067
S'13860044.70000'
p6068
sS'2483'
p6069
S'13896187.90000'
p6070
sS'2480'
p6071
S'13788015.70000'
p6072
sS'1598'
p6073
S'1097689.13000'
p6074
sS'3252'
p6075
S'88531488.90000'
p6076
sS'2248'
p6077
S'7419062.08000'
p6078
sS'2249'
p6079
S'7439402.50000'
p6080
sS'2244'
p6081
S'7338205.64000'
p6082
sS'2245'
p6083
S'7358343.70000'
p6084
sS'2246'
p6085
S'7378531.74000'
p6086
sS'2247'
p6087
S'7398771.85000'
p6088
sS'2240'
p6089
S'7258162.06000'
p6090
sS'2241'
p6091
S'7278096.79000'
p6092
sS'2242'
p6093
S'7298083.26000'
p6094
sS'2243'
p6095
S'7318119.52000'
p6096
sS'995'
p6097
S'146565.69500'
p6098
sS'994'
p6099
S'146051.29900'
p6100
sS'997'
p6101
S'147601.03500'
p6102
sS'996'
p6103
S'147082.27200'
p6104
sS'991'
p6105
S'144517.04000'
p6106
sS'990'
p6107
S'144008.97700'
p6108
sS'993'
p6109
S'145537.90400'
p6110
sS'992'
p6111
S'145026.68200'
p6112
sS'999'
p6113
S'148642.77700'
p6114
sS'998'
p6115
S'148120.80900'
p6116
sS'120'
p6117
S'2465.56902'
p6118
sS'121'
p6119
S'2496.21875'
p6120
sS'122'
p6121
S'2526.99489'
p6122
sS'123'
p6123
S'2557.89695'
p6124
sS'124'
p6125
S'2588.92441'
p6126
sS'125'
p6127
S'2620.07679'
p6128
sS'126'
p6129
S'2651.35359'
p6130
sS'127'
p6131
S'2682.75434'
p6132
sS'128'
p6133
S'2714.30568'
p6134
sS'129'
p6135
S'2745.95318'
p6136
sS'3416'
p6137
S'126848988.00000'
p6138
sS'3379'
p6139
S'117077748.00000'
p6140
sS'3417'
p6141
S'127123113.00000'
p6142
sS'3378'
p6143
S'116823469.00000'
p6144
sS'3414'
p6145
S'126302360.00000'
p6146
sS'2068'
p6147
S'4488115.70000'
p6148
sS'2069'
p6149
S'4500911.70000'
p6150
sS'2798'
p6151
S'30734217.40000'
p6152
sS'2799'
p6153
S'30809243.50000'
p6154
sS'3376'
p6155
S'116316414.00000'
p6156
sS'2060'
p6157
S'4386961.08000'
p6158
sS'2061'
p6159
S'4399488.86000'
p6160
sS'2062'
p6161
S'4412050.67000'
p6162
sS'2063'
p6163
S'4424644.79000'
p6164
sS'2064'
p6165
S'4437273.02000'
p6166
sS'2065'
p6167
S'4449933.66000'
p6168
sS'2066'
p6169
S'4462626.73000'
p6170
sS'2067'
p6171
S'4475355.84000'
p6172
sS'3374'
p6173
S'115811373.00000'
p6174
sS'3410'
p6175
S'125215545.00000'
p6176
sS'3373'
p6177
S'115559602.00000'
p6178
sS'3411'
p6179
S'125486445.00000'
p6180
sS'3255'
p6181
S'89124927.70000'
p6182
sS'3372'
p6183
S'115308333.00000'
p6184
sS'3371'
p6185
S'115057560.00000'
p6186
sS'3370'
p6187
S'114807287.00000'
p6188
sS'3077'
p6189
S'59549865.20000'
p6190
sS'2666'
p6191
S'22177703.00000'
p6192
sS'2667'
p6193
S'22233341.40000'
p6194
sS'2664'
p6195
S'22066811.60000'
p6196
sS'2665'
p6197
S'22122192.20000'
p6198
sS'2662'
p6199
S'21956426.90000'
p6200
sS'2663'
p6201
S'22011555.70000'
p6202
sS'2660'
p6203
S'21846550.50000'
p6204
sS'2661'
p6205
S'21901425.30000'
p6206
sS'1748'
p6207
S'1747361.85000'
p6208
sS'2668'
p6209
S'22289107.50000'
p6210
sS'1749'
p6211
S'1752699.37000'
p6212
sS'2938'
p6213
S'43031340.10000'
p6214
sS'2939'
p6215
S'43133432.60000'
p6216
sS'2936'
p6217
S'42827813.70000'
p6218
sS'2937'
p6219
S'42929465.10000'
p6220
sS'2934'
p6221
S'42625168.10000'
p6222
sS'2935'
p6223
S'42726379.40000'
p6224
sS'2932'
p6225
S'42423398.60000'
p6226
sS'2933'
p6227
S'42524173.60000'
p6228
sS'2930'
p6229
S'42222506.10000'
p6230
sS'2931'
p6231
S'42322845.80000'
p6232
sS'1645'
p6233
S'1271828.96000'
p6234
sS'1644'
p6235
S'1267869.35000'
p6236
sS'1647'
p6237
S'1279782.35000'
p6238
sS'1646'
p6239
S'1275799.11000'
p6240
sS'1641'
p6241
S'1256061.19000'
p6242
sS'1640'
p6243
S'1252147.38000'
p6244
sS'1643'
p6245
S'1263921.54000'
p6246
sS'1642'
p6247
S'1259985.49000'
p6248
sS'1649'
p6249
S'1287781.88000'
p6250
sS'1648'
p6251
S'1283776.18000'
p6252
sS'1742'
p6253
S'1715651.36000'
p6254
sS'1743'
p6255
S'1720898.52000'
p6256
sS'579'
p6257
S'32198.86280'
p6258
sS'578'
p6259
S'32076.13200'
p6260
sS'573'
p6261
S'31469.70310'
p6262
sS'572'
p6263
S'31349.64540'
p6264
sS'571'
p6265
S'31229.85830'
p6266
sS'570'
p6267
S'31110.59560'
p6268
sS'577'
p6269
S'31953.93700'
p6270
sS'576'
p6271
S'31832.27560'
p6272
sS'575'
p6273
S'31710.88830'
p6274
sS'574'
p6275
S'31590.03150'
p6276
sS'2808'
p6277
S'31492070.10000'
p6278
sS'2809'
p6279
S'31568789.20000'
p6280
sS'3168'
p6281
S'73310930.80000'
p6282
sS'3169'
p6283
S'73477095.30000'
p6284
sS'2802'
p6285
S'31035330.50000'
p6286
sS'1209'
p6287
S'307208.85200'
p6288
sS'2800'
p6289
S'30884438.10000'
p6290
sS'2801'
p6291
S'30959801.30000'
p6292
sS'2806'
p6293
S'31339145.10000'
p6294
sS'2807'
p6295
S'31415524.10000'
p6296
sS'2804'
p6297
S'31186899.00000'
p6298
sS'1208'
p6299
S'306168.02900'
p6300
sS'1421'
p6301
S'622358.82400'
p6302
sS'1420'
p6303
S'620331.09400'
p6304
sS'1423'
p6305
S'626432.83400'
p6306
sS'1422'
p6307
S'624392.73400'
p6308
sS'1425'
p6309
S'630532.66100'
p6310
sS'1424'
p6311
S'628479.13500'
p6312
sS'1427'
p6313
S'634657.38900'
p6314
sS'1426'
p6315
S'632591.40100'
p6316
sS'1429'
p6317
S'638807.10700'
p6318
sS'1428'
p6319
S'636728.61100'
p6320
sS'3366'
p6321
S'113811153.00000'
p6322
sS'3367'
p6323
S'114059445.00000'
p6324
sS'3360'
p6325
S'112331740.00000'
p6326
sS'2156'
p6327
S'5752323.21000'
p6328
sS'3362'
p6329
S'112822914.00000'
p6330
sS'3363'
p6331
S'113069237.00000'
p6332
sS'731'
p6333
S'56785.87440'
p6334
sS'730'
p6335
S'56577.94830'
p6336
sS'733'
p6337
S'57204.21200'
p6338
sS'732'
p6339
S'56994.62810'
p6340
sS'735'
p6341
S'57625.13630'
p6342
sS'734'
p6343
S'57414.25720'
p6344
sS'737'
p6345
S'58049.40690'
p6346
sS'736'
p6347
S'57836.85200'
p6348
sS'739'
p6349
S'58476.29410'
p6350
sS'738'
p6351
S'58262.42900'
p6352
sS'2403'
p6353
S'11262818.40000'
p6354
sS'1359'
p6355
S'507740.16500'
p6356
sS'1358'
p6357
S'506065.66000'
p6358
sS'469'
p6359
S'20936.80930'
p6360
sS'468'
p6361
S'20852.24490'
p6362
sS'1353'
p6363
S'497771.77500'
p6364
sS'1352'
p6365
S'496128.28200'
p6366
sS'1351'
p6367
S'494490.23500'
p6368
sS'1350'
p6369
S'492856.69100'
p6370
sS'461'
p6371
S'20268.42780'
p6372
sS'1356'
p6373
S'502732.22100'
p6374
sS'463'
p6375
S'20433.87140'
p6376
sS'462'
p6377
S'20350.96680'
p6378
sS'3393'
p6379
S'120691144.00000'
p6380
sS'1273'
p6381
S'381307.72800'
p6382
sS'2158'
p6383
S'5784543.92000'
p6384
sS'2159'
p6385
S'5800715.46000'
p6386
sS'1519'
p6387
S'854238.82100'
p6388
sS'1518'
p6389
S'851509.87500'
p6390
sS'3392'
p6391
S'120429706.00000'
p6392
sS'1515'
p6393
S'843370.57200'
p6394
sS'1514'
p6395
S'840674.37900'
p6396
sS'1517'
p6397
S'848788.30500'
p6398
sS'1516'
p6399
S'846076.31900'
p6400
sS'1274'
p6401
S'382589.54900'
p6402
sS'1510'
p6403
S'829967.11800'
p6404
sS'1513'
p6405
S'837985.50700'
p6406
sS'1512'
p6407
S'835305.05100'
p6408
sS'3031'
p6409
S'53532759.00000'
p6410
sS'3439'
p6411
S'133292282.00000'
p6412
sS'3395'
p6413
S'121215567.00000'
p6414
sS'1735'
p6415
S'1679331.92000'
p6416
sS'1275'
p6417
S'383875.23200'
p6418
sS'3184'
p6419
S'76011212.20000'
p6420
sS'3185'
p6421
S'76182959.90000'
p6422
sS'3186'
p6423
S'76355060.50000'
p6424
sS'3187'
p6425
S'76527517.90000'
p6426
sS'3180'
p6427
S'75327754.20000'
p6428
sS'3181'
p6429
S'75498090.20000'
p6430
sS'3182'
p6431
S'75668777.70000'
p6432
sS'3183'
p6433
S'75839820.50000'
p6434
sS'3188'
p6435
S'76700328.90000'
p6436
sS'3189'
p6437
S'76873500.80000'
p6438
sS'3214'
p6439
S'81320530.60000'
p6440
sS'3397'
p6441
S'121742073.00000'
p6442
sS'3109'
p6443
S'64093628.40000'
p6444
sS'3396'
p6445
S'121478560.00000'
p6446
sS'357'
p6447
S'12955.98980'
p6448
sS'356'
p6449
S'12896.34690'
p6450
sS'355'
p6451
S'12836.70060'
p6452
sS'354'
p6453
S'12777.30100'
p6454
sS'353'
p6455
S'12718.02270'
p6456
sS'352'
p6457
S'12658.98900'
p6458
sS'351'
p6459
S'12600.07570'
p6460
sS'350'
p6461
S'12541.40470'
p6462
sS'359'
p6463
S'13076.02000'
p6464
sS'358'
p6465
S'13016.00660'
p6466
sS'3107'
p6467
S'63800617.50000'
p6468
sS'2323'
p6469
S'9095511.77000'
p6470
sS'1447'
p6471
S'677318.83600'
p6472
sS'2321'
p6473
S'9046616.39000'
p6474
sS'2320'
p6475
S'9022260.13000'
p6476
sS'2327'
p6477
S'9194031.92000'
p6478
sS'2326'
p6479
S'9169308.92000'
p6480
sS'2325'
p6481
S'9144650.08000'
p6482
sS'1446'
p6483
S'675123.65100'
p6484
sS'2329'
p6485
S'9243660.04000'
p6486
sS'2328'
p6487
S'9218814.89000'
p6488
sS'1445'
p6489
S'672934.93200'
p6490
sS'289'
p6491
S'9247.93091'
p6492
sS'288'
p6493
S'9198.21899'
p6494
sS'1444'
p6495
S'670752.67000'
p6496
sS'2830'
p6497
S'33219957.70000'
p6498
sS'281'
p6499
S'8854.16715'
p6500
sS'280'
p6501
S'8805.53498'
p6502
sS'283'
p6503
S'8951.91026'
p6504
sS'282'
p6505
S'8902.98808'
p6506
sS'285'
p6507
S'9050.05802'
p6508
sS'284'
p6509
S'9000.93361'
p6510
sS'287'
p6511
S'9148.70033'
p6512
sS'286'
p6513
S'9099.28340'
p6514
sS'1441'
p6515
S'664245.53600'
p6516
sS'1116'
p6517
S'223443.51700'
p6518
sS'263'
p6519
S'7997.12011'
p6520
sS'262'
p6521
S'7950.69318'
p6522
sS'261'
p6523
S'7904.28561'
p6524
sS'260'
p6525
S'7858.05530'
p6526
sS'267'
p6527
S'8184.21239'
p6528
sS'266'
p6529
S'8137.31145'
p6530
sS'265'
p6531
S'8090.42846'
p6532
sS'264'
p6533
S'8043.72495'
p6534
sS'269'
p6535
S'8278.47364'
p6536
sS'268'
p6537
S'8231.29347'
p6538
sS'1562'
p6539
S'979655.97900'
p6540
sS'2499'
p6541
S'14486386.30000'
p6542
sS'2498'
p6543
S'14448835.00000'
p6544
sS'1563'
p6545
S'982767.53300'
p6546
sS'1980'
p6547
S'3485058.07000'
p6548
sS'2491'
p6549
S'14188469.10000'
p6550
sS'1564'
p6551
S'985888.25500'
p6552
sS'2493'
p6553
S'14262415.00000'
p6554
sS'2492'
p6555
S'14225399.00000'
p6556
sS'2495'
p6557
S'14336717.50000'
p6558
sS'2192'
p6559
S'6358379.41000'
p6560
sS'2497'
p6561
S'14411372.70000'
p6562
sS'1565'
p6563
S'989019.32500'
p6564
sS'2193'
p6565
S'6376025.93000'
p6566
sS'1566'
p6567
S'992158.43000'
p6568
sS'2259'
p6569
S'7645666.50000'
p6570
sS'2258'
p6571
S'7624804.35000'
p6572
sS'2257'
p6573
S'7603997.13000'
p6574
sS'2256'
p6575
S'7583240.68000'
p6576
sS'2255'
p6577
S'7562536.99000'
p6578
sS'1567'
p6579
S'995307.91700'
p6580
sS'2253'
p6581
S'7521285.54000'
p6582
sS'2252'
p6583
S'7500737.65000'
p6584
sS'2251'
p6585
S'7480240.21000'
p6586
sS'2250'
p6587
S'7459797.21000'
p6588
sS'2477'
p6589
S'13680619.00000'
p6590
sS'2476'
p6591
S'13644989.40000'
p6592
sS'988'
p6593
S'142998.15400'
p6594
sS'989'
p6595
S'143502.48900'
p6596
sS'2473'
p6597
S'13538616.00000'
p6598
sS'2472'
p6599
S'13503328.10000'
p6600
sS'2471'
p6601
S'13468124.30000'
p6602
sS'2470'
p6603
S'13433004.50000'
p6604
sS'982'
p6605
S'140006.07900'
p6606
sS'983'
p6607
S'140500.48900'
p6608
sS'980'
p6609
S'139021.89200'
p6610
sS'981'
p6611
S'139513.21500'
p6612
sS'986'
p6613
S'141994.18100'
p6614
sS'987'
p6615
S'142495.38600'
p6616
sS'984'
p6617
S'140996.44700'
p6618
sS'985'
p6619
S'141494.53600'
p6620
sS'115'
p6621
S'2314.23494'
p6622
sS'114'
p6623
S'2284.35477'
p6624
sS'117'
p6625
S'2374.38354'
p6626
sS'116'
p6627
S'2344.24471'
p6628
sS'111'
p6629
S'2195.49751'
p6630
sS'110'
p6631
S'2166.14141'
p6632
sS'113'
p6633
S'2254.60477'
p6634
sS'112'
p6635
S'2224.98549'
p6636
sS'119'
p6637
S'2435.04623'
p6638
sS'118'
p6639
S'2404.65090'
p6640
sS'3432'
p6641
S'131300360.00000'
p6642
sS'2785'
p6643
S'29773981.30000'
p6644
sS'2784'
p6645
S'29701269.20000'
p6646
sS'2787'
p6647
S'29919900.60000'
p6648
sS'2786'
p6649
S'29846859.30000'
p6650
sS'2781'
p6651
S'29484101.50000'
p6652
sS'2780'
p6653
S'29412037.30000'
p6654
sS'2783'
p6655
S'29628717.30000'
p6656
sS'2782'
p6657
S'29556328.10000'
p6658
sS'2789'
p6659
S'30066471.00000'
p6660
sS'2788'
p6661
S'29993102.50000'
p6662
sS'1797'
p6663
S'2027494.24000'
p6664
sS'2079'
p6665
S'4630727.26000'
p6666
sS'2078'
p6667
S'4617592.21000'
p6668
sS'2073'
p6669
S'4552429.55000'
p6670
sS'2072'
p6671
S'4539499.21000'
p6672
sS'2071'
p6673
S'4526601.63000'
p6674
sS'2070'
p6675
S'4513740.33000'
p6676
sS'2077'
p6677
S'4604490.20000'
p6678
sS'2076'
p6679
S'4591422.98000'
p6680
sS'2075'
p6681
S'4578390.50000'
p6682
sS'2074'
p6683
S'4565392.70000'
p6684
sS'1796'
p6685
S'2021382.45000'
p6686
sS'3221'
p6687
S'82607131.80000'
p6688
sS'3500'
p6689
S'151854047.00000'
p6690
sS'2671'
p6691
S'22457174.20000'
p6692
sS'2670'
p6693
S'22401021.20000'
p6694
sS'2673'
p6695
S'22569862.80000'
p6696
sS'2672'
p6697
S'22513452.90000'
p6698
sS'2675'
p6699
S'22683071.20000'
p6700
sS'2674'
p6701
S'22626401.30000'
p6702
sS'2677'
p6703
S'22796798.10000'
p6704
sS'2676'
p6705
S'22739870.10000'
p6706
sS'2679'
p6707
S'22911049.90000'
p6708
sS'2678'
p6709
S'22853858.00000'
p6710
sS'3220'
p6711
S'82422199.50000'
p6712
sS'2929'
p6713
S'42122388.20000'
p6714
sS'2928'
p6715
S'42022485.90000'
p6716
sS'2921'
p6717
S'41329213.90000'
p6718
sS'2920'
p6719
S'41231034.00000'
p6720
sS'2923'
p6721
S'41526215.10000'
p6722
sS'2922'
p6723
S'41427607.50000'
p6724
sS'2925'
p6725
S'41724076.20000'
p6726
sS'2924'
p6727
S'41625039.90000'
p6728
sS'2927'
p6729
S'41922799.00000'
p6730
sS'2926'
p6731
S'41823330.10000'
p6732
sS'3394'
p6733
S'120953096.00000'
p6734
sS'2907'
p6735
S'39973973.70000'
p6736
sS'2906'
p6737
S'39878745.00000'
p6738
sS'1630'
p6739
S'1213632.79000'
p6740
sS'1631'
p6741
S'1217434.08000'
p6742
sS'1632'
p6743
S'1221246.90000'
p6744
sS'484'
p6745
S'22238.49670'
p6746
sS'1634'
p6747
S'1228904.77000'
p6748
sS'1635'
p6749
S'1232749.85000'
p6750
sS'1636'
p6751
S'1236606.54000'
p6752
sS'1637'
p6753
S'1240474.87000'
p6754
sS'1638'
p6755
S'1244354.86000'
p6756
sS'1639'
p6757
S'1248245.27000'
p6758
sS'3218'
p6759
S'82053472.50000'
p6760
sS'3219'
p6761
S'82237646.50000'
p6762
sS'1988'
p6763
S'3566839.10000'
p6764
sS'1989'
p6765
S'3577186.46000'
p6766
sS'3222'
p6767
S'82792443.70000'
p6768
sS'2909'
p6769
S'40165057.30000'
p6770
sS'568'
p6771
S'30873.38160'
p6772
sS'569'
p6773
S'30991.85500'
p6774
sS'2817'
p6775
S'32188730.90000'
p6776
sS'2816'
p6777
S'32110635.70000'
p6778
sS'2811'
p6779
S'31722741.20000'
p6780
sS'2810'
p6781
S'31645681.40000'
p6782
sS'2813'
p6783
S'31877381.70000'
p6784
sS'2812'
p6785
S'31799974.60000'
p6786
sS'560'
p6787
S'29940.63430'
p6788
sS'561'
p6789
S'30055.75120'
p6790
sS'562'
p6791
S'30171.37590'
p6792
sS'563'
p6793
S'30287.51040'
p6794
sS'564'
p6795
S'30403.90700'
p6796
sS'565'
p6797
S'30520.56600'
p6798
sS'566'
p6799
S'30637.73870'
p6800
sS'567'
p6801
S'30755.42740'
p6802
sS'3179'
p6803
S'75157769.50000'
p6804
sS'3178'
p6805
S'74988135.70000'
p6806
sS'3171'
p6807
S'73810456.70000'
p6808
sS'3170'
p6809
S'73643603.80000'
p6810
sS'3173'
p6811
S'74145200.40000'
p6812
sS'3172'
p6813
S'73977657.70000'
p6814
sS'3175'
p6815
S'74481332.50000'
p6816
sS'3174'
p6817
S'74313091.80000'
p6818
sS'3177'
p6819
S'74818852.30000'
p6820
sS'3176'
p6821
S'74649919.20000'
p6822
sS'1188'
p6823
S'286027.25500'
p6824
sS'1189'
p6825
S'287004.02300'
p6826
sS'1186'
p6827
S'284083.46400'
p6828
sS'1187'
p6829
S'285053.73800'
p6830
sS'1184'
p6831
S'282152.62000'
p6832
sS'1185'
p6833
S'283117.19200'
p6834
sS'1182'
p6835
S'280234.66800'
p6836
sS'1183'
p6837
S'281192.03600'
p6838
sS'1180'
p6839
S'278328.79400'
p6840
sS'1181'
p6841
S'279279.74900'
p6842
sS'726'
p6843
S'55753.00520'
p6844
sS'727'
p6845
S'55958.37660'
p6846
sS'724'
p6847
S'55345.07610'
p6848
sS'725'
p6849
S'55548.81590'
p6850
sS'722'
p6851
S'54939.66840'
p6852
sS'723'
p6853
S'55142.14860'
p6854
sS'720'
p6855
S'54537.13100'
p6856
sS'721'
p6857
S'54737.99670'
p6858
sS'1744'
p6859
S'1726162.28000'
p6860
sS'1745'
p6861
S'1731438.55000'
p6862
sS'1746'
p6863
S'1736731.47000'
p6864
sS'1747'
p6865
S'1742039.69000'
p6866
sS'1740'
p6867
S'1705201.25000'
p6868
sS'1741'
p6869
S'1710418.03000'
p6870
sS'728'
p6871
S'56164.20120'
p6872
sS'729'
p6873
S'56370.47940'
p6874
sS'1164'
p6875
S'263516.76500'
p6876
sS'1165'
p6877
S'264420.34300'
p6878
sS'1166'
p6879
S'265326.27700'
p6880
sS'1167'
p6881
S'266235.31800'
p6882
sS'1160'
p6883
S'259932.60200'
p6884
sS'1161'
p6885
S'260824.57800'
p6886
sS'1162'
p6887
S'261718.88900'
p6888
sS'1163'
p6889
S'262616.28200'
p6890
sS'3309'
p6891
S'100447512.00000'
p6892
sS'1168'
p6893
S'267148.22100'
p6894
sS'1169'
p6895
S'268062.74900'
p6896
sS'3092'
p6897
S'61641755.70000'
p6898
sS'3304'
p6899
S'99346493.10000'
p6900
sS'472'
p6901
S'21191.99710'
p6902
sS'2913'
p6903
S'40549732.30000'
p6904
sS'3305'
p6905
S'99565811.40000'
p6906
sS'48'
p6907
S'635.52548'
p6908
sS'49'
p6909
S'655.02693'
p6910
sS'46'
p6911
S'597.13377'
p6912
sS'47'
p6913
S'616.22692'
p6914
sS'44'
p6915
S'559.57412'
p6916
sS'45'
p6917
S'578.24859'
p6918
sS'42'
p6919
S'522.86864'
p6920
sS'43'
p6921
S'541.11315'
p6922
sS'40'
p6923
S'487.04141'
p6924
sS'41'
p6925
S'504.84366'
p6926
sS'1568'
p6927
S'998466.63700'
p6928
sS'1569'
p6929
S'1001633.43000'
p6930
sS'1298'
p6931
S'414605.90100'
p6932
sS'1299'
p6933
S'415993.58200'
p6934
sS'1292'
p6935
S'406372.53000'
p6936
sS'1293'
p6937
S'407734.26300'
p6938
sS'1290'
p6939
S'403662.81200'
p6940
sS'1291'
p6941
S'405015.67300'
p6942
sS'1296'
p6943
S'411844.44500'
p6944
sS'1297'
p6945
S'413223.15100'
p6946
sS'1294'
p6947
S'409100.00900'
p6948
sS'1295'
p6949
S'410469.77500'
p6950
sS'1713'
p6951
S'1569791.28000'
p6952
sS'474'
p6953
S'21363.56770'
p6954
sS'1712'
p6955
S'1564973.83000'
p6956
sS'475'
p6957
S'21449.82850'
p6958
sS'1711'
p6959
S'1560170.88000'
p6960
sS'2425'
p6961
S'11937010.60000'
p6962
sS'1710'
p6963
S'1555381.08000'
p6964
sS'1717'
p6965
S'1589199.93000'
p6966
sS'1716'
p6967
S'1584326.90000'
p6968
sS'1715'
p6969
S'1579468.46000'
p6970
sS'1201'
p6971
S'298970.32800'
p6972
sS'1714'
p6973
S'1574623.26000'
p6974
sS'1366'
p6975
S'519607.29100'
p6976
sS'473'
p6977
S'21277.68830'
p6978
sS'1364'
p6979
S'516189.97900'
p6980
sS'1365'
p6981
S'517895.84600'
p6982
sS'1362'
p6983
S'512793.99000'
p6984
sS'1363'
p6985
S'514489.67900'
p6986
sS'1360'
p6987
S'509419.24400'
p6988
sS'1361'
p6989
S'511103.84900'
p6990
sS'478'
p6991
S'21710.13900'
p6992
sS'479'
p6993
S'21797.35580'
p6994
sS'2916'
p6995
S'40840447.60000'
p6996
sS'1368'
p6997
S'523045.05500'
p6998
sS'1369'
p6999
S'524772.34400'
p7000
s.